

HI-TECH Software PIC18 LITE Macro Assembler V9.80 build 11162 
                                                                                               Tue Apr 10 16:08:41 2018

HI-TECH Software Omniscient Code Generator (Lite mode) build 11162
     1  0000                     opt subtitle "HI-TECH Software Omniscient Code Generator (Lite mode) build 11162"
     2                           
     3                           opt pagewidth 120
     4                           
     5                           	opt lm
     6                           
     7                           	processor	18F2520
     8  0000                     porta	equ	0F80h
     9  0000                     portb	equ	0F81h
    10  0000                     portc	equ	0F82h
    11  0000                     portd	equ	0F83h
    12  0000                     porte	equ	0F84h
    13  0000                     lata	equ	0F89h
    14  0000                     latb	equ	0F8Ah
    15  0000                     latc	equ	0F8Bh
    16  0000                     latd	equ	0F8Ch
    17  0000                     late	equ	0F8Dh
    18  0000                     trisa	equ	0F92h
    19  0000                     trisb	equ	0F93h
    20  0000                     trisc	equ	0F94h
    21  0000                     trisd	equ	0F95h
    22  0000                     trise	equ	0F96h
    23  0000                     pie1	equ	0F9Dh
    24  0000                     pir1	equ	0F9Eh
    25  0000                     ipr1	equ	0F9Fh
    26  0000                     pie2	equ	0FA0h
    27  0000                     pir2	equ	0FA1h
    28  0000                     ipr2	equ	0FA2h
    29  0000                     t3con	equ	0FB1h
    30  0000                     tmr3l	equ	0FB2h
    31  0000                     tmr3h	equ	0FB3h
    32  0000                     ccp1con	equ	0FBDh
    33  0000                     ccpr1l	equ	0FBEh
    34  0000                     ccpr1h	equ	0FBFh
    35  0000                     adcon1	equ	0FC1h
    36  0000                     adcon0	equ	0FC2h
    37  0000                     adresl	equ	0FC3h
    38  0000                     adresh	equ	0FC4h
    39  0000                     sspcon2	equ	0FC5h
    40  0000                     sspcon1	equ	0FC6h
    41  0000                     sspstat	equ	0FC7h
    42  0000                     sspadd	equ	0FC8h
    43  0000                     sspbuf	equ	0FC9h
    44  0000                     t2con	equ	0FCAh
    45  0000                     pr2	equ	0FCBh
    46  0000                     tmr2	equ	0FCCh
    47  0000                     t1con	equ	0FCDh
    48  0000                     tmr1l	equ	0FCEh
    49  0000                     tmr1h	equ	0FCFh
    50  0000                     rcon	equ	0FD0h
    51  0000                     wdtcon	equ	0FD1h
    52  0000                     lvdcon	equ	0FD2h
    53  0000                     osccon	equ	0FD3h
    54  0000                     t0con	equ	0FD5h
    55  0000                     tmr0l	equ	0FD6h
    56  0000                     tmr0h	equ	0FD7h
    57  0000                     status	equ	0FD8h
    58  0000                     fsr2	equ	0FD9h
    59  0000                     fsr2l	equ	0FD9h
    60  0000                     fsr2h	equ	0FDAh
    61  0000                     plusw2	equ	0FDBh
    62  0000                     preinc2	equ	0FDCh
    63  0000                     postdec2	equ	0FDDh
    64  0000                     postinc2	equ	0FDEh
    65  0000                     indf2	equ	0FDFh
    66  0000                     bsr	equ	0FE0h
    67  0000                     fsr1	equ	0FE1h
    68  0000                     fsr1l	equ	0FE1h
    69  0000                     fsr1h	equ	0FE2h
    70  0000                     plusw1	equ	0FE3h
    71  0000                     preinc1	equ	0FE4h
    72  0000                     postdec1	equ	0FE5h
    73  0000                     postinc1	equ	0FE6h
    74  0000                     indf1	equ	0FE7h
    75  0000                     wreg	equ	0FE8h
    76  0000                     fsr0	equ	0FE9h
    77  0000                     fsr0l	equ	0FE9h
    78  0000                     fsr0h	equ	0FEAh
    79  0000                     plusw0	equ	0FEBh
    80  0000                     preinc0	equ	0FECh
    81  0000                     postdec0	equ	0FEDh
    82  0000                     postinc0	equ	0FEEh
    83  0000                     indf0	equ	0FEFh
    84  0000                     intcon3	equ	0FF0h
    85  0000                     intcon2	equ	0FF1h
    86  0000                     intcon	equ	0FF2h
    87  0000                     prod	equ	0FF3h
    88  0000                     prodl	equ	0FF3h
    89  0000                     prodh	equ	0FF4h
    90  0000                     tablat	equ	0FF5h
    91  0000                     tblptr	equ	0FF6h
    92  0000                     tblptrl	equ	0FF6h
    93  0000                     tblptrh	equ	0FF7h
    94  0000                     tblptru	equ	0FF8h
    95  0000                     pcl	equ	0FF9h
    96  0000                     pclat	equ	0FFAh
    97  0000                     pclath	equ	0FFAh
    98  0000                     pclatu	equ	0FFBh
    99  0000                     stkptr	equ	0FFCh
   100  0000                     tosl	equ	0FFDh
   101  0000                     tosh	equ	0FFEh
   102  0000                     tosu	equ	0FFFh
   103                           skipnz macro
   104                           	btfsc	status,2
   105  0000                     	endm
   106                           	global	__ramtop
   107                           	global	__accesstop
   108                           # 19 "C:\Program Files\HI-TECH Software\PICC-18\9.80\include\pic18f2520.h"
   109  0000                     PORTA equ 0F80h ;# 
   110                           # 90 "C:\Program Files\HI-TECH Software\PICC-18\9.80\include\pic18f2520.h"
   111  0000                     PORTB equ 0F81h ;# 
   112                           # 139 "C:\Program Files\HI-TECH Software\PICC-18\9.80\include\pic18f2520.h"
   113  0000                     PORTC equ 0F82h ;# 
   114                           # 192 "C:\Program Files\HI-TECH Software\PICC-18\9.80\include\pic18f2520.h"
   115  0000                     PORTE equ 0F84h ;# 
   116                           # 317 "C:\Program Files\HI-TECH Software\PICC-18\9.80\include\pic18f2520.h"
   117  0000                     LATA equ 0F89h ;# 
   118                           # 370 "C:\Program Files\HI-TECH Software\PICC-18\9.80\include\pic18f2520.h"
   119  0000                     LATB equ 0F8Ah ;# 
   120                           # 423 "C:\Program Files\HI-TECH Software\PICC-18\9.80\include\pic18f2520.h"
   121  0000                     LATC equ 0F8Bh ;# 
   122                           # 476 "C:\Program Files\HI-TECH Software\PICC-18\9.80\include\pic18f2520.h"
   123  0000                     TRISA equ 0F92h ;# 
   124                           # 481 "C:\Program Files\HI-TECH Software\PICC-18\9.80\include\pic18f2520.h"
   125  0000                     DDRA equ 0F92h ;# 
   126                           # 539 "C:\Program Files\HI-TECH Software\PICC-18\9.80\include\pic18f2520.h"
   127  0000                     TRISB equ 0F93h ;# 
   128                           # 544 "C:\Program Files\HI-TECH Software\PICC-18\9.80\include\pic18f2520.h"
   129  0000                     DDRB equ 0F93h ;# 
   130                           # 602 "C:\Program Files\HI-TECH Software\PICC-18\9.80\include\pic18f2520.h"
   131  0000                     TRISC equ 0F94h ;# 
   132                           # 607 "C:\Program Files\HI-TECH Software\PICC-18\9.80\include\pic18f2520.h"
   133  0000                     DDRC equ 0F94h ;# 
   134                           # 665 "C:\Program Files\HI-TECH Software\PICC-18\9.80\include\pic18f2520.h"
   135  0000                     OSCTUNE equ 0F9Bh ;# 
   136                           # 687 "C:\Program Files\HI-TECH Software\PICC-18\9.80\include\pic18f2520.h"
   137  0000                     PIE1 equ 0F9Dh ;# 
   138                           # 713 "C:\Program Files\HI-TECH Software\PICC-18\9.80\include\pic18f2520.h"
   139  0000                     PIR1 equ 0F9Eh ;# 
   140                           # 747 "C:\Program Files\HI-TECH Software\PICC-18\9.80\include\pic18f2520.h"
   141  0000                     IPR1 equ 0F9Fh ;# 
   142                           # 773 "C:\Program Files\HI-TECH Software\PICC-18\9.80\include\pic18f2520.h"
   143  0000                     PIE2 equ 0FA0h ;# 
   144                           # 796 "C:\Program Files\HI-TECH Software\PICC-18\9.80\include\pic18f2520.h"
   145  0000                     PIR2 equ 0FA1h ;# 
   146                           # 819 "C:\Program Files\HI-TECH Software\PICC-18\9.80\include\pic18f2520.h"
   147  0000                     IPR2 equ 0FA2h ;# 
   148                           # 842 "C:\Program Files\HI-TECH Software\PICC-18\9.80\include\pic18f2520.h"
   149  0000                     EECON1 equ 0FA6h ;# 
   150                           # 865 "C:\Program Files\HI-TECH Software\PICC-18\9.80\include\pic18f2520.h"
   151  0000                     EECON2 equ 0FA7h ;# 
   152                           # 877 "C:\Program Files\HI-TECH Software\PICC-18\9.80\include\pic18f2520.h"
   153  0000                     EEDATA equ 0FA8h ;# 
   154                           # 889 "C:\Program Files\HI-TECH Software\PICC-18\9.80\include\pic18f2520.h"
   155  0000                     EEADR equ 0FA9h ;# 
   156                           # 901 "C:\Program Files\HI-TECH Software\PICC-18\9.80\include\pic18f2520.h"
   157  0000                     RCSTA equ 0FABh ;# 
   158                           # 906 "C:\Program Files\HI-TECH Software\PICC-18\9.80\include\pic18f2520.h"
   159  0000                     RCSTA1 equ 0FABh ;# 
   160                           # 954 "C:\Program Files\HI-TECH Software\PICC-18\9.80\include\pic18f2520.h"
   161  0000                     TXSTA equ 0FACh ;# 
   162                           # 959 "C:\Program Files\HI-TECH Software\PICC-18\9.80\include\pic18f2520.h"
   163  0000                     TXSTA1 equ 0FACh ;# 
   164                           # 1053 "C:\Program Files\HI-TECH Software\PICC-18\9.80\include\pic18f2520.h"
   165  0000                     TXREG equ 0FADh ;# 
   166                           # 1058 "C:\Program Files\HI-TECH Software\PICC-18\9.80\include\pic18f2520.h"
   167  0000                     TXREG1 equ 0FADh ;# 
   168                           # 1076 "C:\Program Files\HI-TECH Software\PICC-18\9.80\include\pic18f2520.h"
   169  0000                     RCREG equ 0FAEh ;# 
   170                           # 1081 "C:\Program Files\HI-TECH Software\PICC-18\9.80\include\pic18f2520.h"
   171  0000                     RCREG1 equ 0FAEh ;# 
   172                           # 1099 "C:\Program Files\HI-TECH Software\PICC-18\9.80\include\pic18f2520.h"
   173  0000                     SPBRG equ 0FAFh ;# 
   174                           # 1104 "C:\Program Files\HI-TECH Software\PICC-18\9.80\include\pic18f2520.h"
   175  0000                     SPBRG1 equ 0FAFh ;# 
   176                           # 1122 "C:\Program Files\HI-TECH Software\PICC-18\9.80\include\pic18f2520.h"
   177  0000                     SPBRGH equ 0FB0h ;# 
   178                           # 1134 "C:\Program Files\HI-TECH Software\PICC-18\9.80\include\pic18f2520.h"
   179  0000                     T3CON equ 0FB1h ;# 
   180                           # 1175 "C:\Program Files\HI-TECH Software\PICC-18\9.80\include\pic18f2520.h"
   181  0000                     TMR3 equ 0FB2h ;# 
   182                           # 1187 "C:\Program Files\HI-TECH Software\PICC-18\9.80\include\pic18f2520.h"
   183  0000                     TMR3L equ 0FB2h ;# 
   184                           # 1199 "C:\Program Files\HI-TECH Software\PICC-18\9.80\include\pic18f2520.h"
   185  0000                     TMR3H equ 0FB3h ;# 
   186                           # 1211 "C:\Program Files\HI-TECH Software\PICC-18\9.80\include\pic18f2520.h"
   187  0000                     CMCON equ 0FB4h ;# 
   188                           # 1244 "C:\Program Files\HI-TECH Software\PICC-18\9.80\include\pic18f2520.h"
   189  0000                     CVRCON equ 0FB5h ;# 
   190                           # 1270 "C:\Program Files\HI-TECH Software\PICC-18\9.80\include\pic18f2520.h"
   191  0000                     ECCP1AS equ 0FB6h ;# 
   192                           # 1275 "C:\Program Files\HI-TECH Software\PICC-18\9.80\include\pic18f2520.h"
   193  0000                     ECCPAS equ 0FB6h ;# 
   194                           # 1315 "C:\Program Files\HI-TECH Software\PICC-18\9.80\include\pic18f2520.h"
   195  0000                     PWM1CON equ 0FB7h ;# 
   196                           # 1320 "C:\Program Files\HI-TECH Software\PICC-18\9.80\include\pic18f2520.h"
   197  0000                     ECCP1DEL equ 0FB7h ;# 
   198                           # 1340 "C:\Program Files\HI-TECH Software\PICC-18\9.80\include\pic18f2520.h"
   199  0000                     BAUDCON equ 0FB8h ;# 
   200                           # 1345 "C:\Program Files\HI-TECH Software\PICC-18\9.80\include\pic18f2520.h"
   201  0000                     BAUDCTL equ 0FB8h ;# 
   202                           # 1405 "C:\Program Files\HI-TECH Software\PICC-18\9.80\include\pic18f2520.h"
   203  0000                     CCP2CON equ 0FBAh ;# 
   204                           # 1431 "C:\Program Files\HI-TECH Software\PICC-18\9.80\include\pic18f2520.h"
   205  0000                     CCPR2 equ 0FBBh ;# 
   206                           # 1443 "C:\Program Files\HI-TECH Software\PICC-18\9.80\include\pic18f2520.h"
   207  0000                     CCPR2L equ 0FBBh ;# 
   208                           # 1455 "C:\Program Files\HI-TECH Software\PICC-18\9.80\include\pic18f2520.h"
   209  0000                     CCPR2H equ 0FBCh ;# 
   210                           # 1467 "C:\Program Files\HI-TECH Software\PICC-18\9.80\include\pic18f2520.h"
   211  0000                     CCP1CON equ 0FBDh ;# 
   212                           # 1493 "C:\Program Files\HI-TECH Software\PICC-18\9.80\include\pic18f2520.h"
   213  0000                     CCPR1 equ 0FBEh ;# 
   214                           # 1505 "C:\Program Files\HI-TECH Software\PICC-18\9.80\include\pic18f2520.h"
   215  0000                     CCPR1L equ 0FBEh ;# 
   216                           # 1517 "C:\Program Files\HI-TECH Software\PICC-18\9.80\include\pic18f2520.h"
   217  0000                     CCPR1H equ 0FBFh ;# 
   218                           # 1529 "C:\Program Files\HI-TECH Software\PICC-18\9.80\include\pic18f2520.h"
   219  0000                     ADCON2 equ 0FC0h ;# 
   220                           # 1552 "C:\Program Files\HI-TECH Software\PICC-18\9.80\include\pic18f2520.h"
   221  0000                     ADCON1 equ 0FC1h ;# 
   222                           # 1585 "C:\Program Files\HI-TECH Software\PICC-18\9.80\include\pic18f2520.h"
   223  0000                     ADCON0 equ 0FC2h ;# 
   224                           # 1640 "C:\Program Files\HI-TECH Software\PICC-18\9.80\include\pic18f2520.h"
   225  0000                     ADRES equ 0FC3h ;# 
   226                           # 1652 "C:\Program Files\HI-TECH Software\PICC-18\9.80\include\pic18f2520.h"
   227  0000                     ADRESL equ 0FC3h ;# 
   228                           # 1664 "C:\Program Files\HI-TECH Software\PICC-18\9.80\include\pic18f2520.h"
   229  0000                     ADRESH equ 0FC4h ;# 
   230                           # 1676 "C:\Program Files\HI-TECH Software\PICC-18\9.80\include\pic18f2520.h"
   231  0000                     SSPCON2 equ 0FC5h ;# 
   232                           # 1703 "C:\Program Files\HI-TECH Software\PICC-18\9.80\include\pic18f2520.h"
   233  0000                     SSPCON1 equ 0FC6h ;# 
   234                           # 1725 "C:\Program Files\HI-TECH Software\PICC-18\9.80\include\pic18f2520.h"
   235  0000                     SSPSTAT equ 0FC7h ;# 
   236                           # 1832 "C:\Program Files\HI-TECH Software\PICC-18\9.80\include\pic18f2520.h"
   237  0000                     SSPADD equ 0FC8h ;# 
   238                           # 1844 "C:\Program Files\HI-TECH Software\PICC-18\9.80\include\pic18f2520.h"
   239  0000                     SSPBUF equ 0FC9h ;# 
   240                           # 1856 "C:\Program Files\HI-TECH Software\PICC-18\9.80\include\pic18f2520.h"
   241  0000                     T2CON equ 0FCAh ;# 
   242                           # 1886 "C:\Program Files\HI-TECH Software\PICC-18\9.80\include\pic18f2520.h"
   243  0000                     PR2 equ 0FCBh ;# 
   244                           # 1891 "C:\Program Files\HI-TECH Software\PICC-18\9.80\include\pic18f2520.h"
   245  0000                     MEMCON equ 0FCBh ;# 
   246                           # 1909 "C:\Program Files\HI-TECH Software\PICC-18\9.80\include\pic18f2520.h"
   247  0000                     TMR2 equ 0FCCh ;# 
   248                           # 1921 "C:\Program Files\HI-TECH Software\PICC-18\9.80\include\pic18f2520.h"
   249  0000                     T1CON equ 0FCDh ;# 
   250                           # 1958 "C:\Program Files\HI-TECH Software\PICC-18\9.80\include\pic18f2520.h"
   251  0000                     TMR1 equ 0FCEh ;# 
   252                           # 1970 "C:\Program Files\HI-TECH Software\PICC-18\9.80\include\pic18f2520.h"
   253  0000                     TMR1L equ 0FCEh ;# 
   254                           # 1982 "C:\Program Files\HI-TECH Software\PICC-18\9.80\include\pic18f2520.h"
   255  0000                     TMR1H equ 0FCFh ;# 
   256                           # 1994 "C:\Program Files\HI-TECH Software\PICC-18\9.80\include\pic18f2520.h"
   257  0000                     RCON equ 0FD0h ;# 
   258                           # 2039 "C:\Program Files\HI-TECH Software\PICC-18\9.80\include\pic18f2520.h"
   259  0000                     WDTCON equ 0FD1h ;# 
   260                           # 2054 "C:\Program Files\HI-TECH Software\PICC-18\9.80\include\pic18f2520.h"
   261  0000                     HLVDCON equ 0FD2h ;# 
   262                           # 2059 "C:\Program Files\HI-TECH Software\PICC-18\9.80\include\pic18f2520.h"
   263  0000                     LVDCON equ 0FD2h ;# 
   264                           # 2129 "C:\Program Files\HI-TECH Software\PICC-18\9.80\include\pic18f2520.h"
   265  0000                     OSCCON equ 0FD3h ;# 
   266                           # 2154 "C:\Program Files\HI-TECH Software\PICC-18\9.80\include\pic18f2520.h"
   267  0000                     T0CON equ 0FD5h ;# 
   268                           # 2179 "C:\Program Files\HI-TECH Software\PICC-18\9.80\include\pic18f2520.h"
   269  0000                     TMR0 equ 0FD6h ;# 
   270                           # 2191 "C:\Program Files\HI-TECH Software\PICC-18\9.80\include\pic18f2520.h"
   271  0000                     TMR0L equ 0FD6h ;# 
   272                           # 2203 "C:\Program Files\HI-TECH Software\PICC-18\9.80\include\pic18f2520.h"
   273  0000                     TMR0H equ 0FD7h ;# 
   274                           # 2215 "C:\Program Files\HI-TECH Software\PICC-18\9.80\include\pic18f2520.h"
   275  0000                     STATUS equ 0FD8h ;# 
   276                           # 2246 "C:\Program Files\HI-TECH Software\PICC-18\9.80\include\pic18f2520.h"
   277  0000                     FSR2 equ 0FD9h ;# 
   278                           # 2258 "C:\Program Files\HI-TECH Software\PICC-18\9.80\include\pic18f2520.h"
   279  0000                     FSR2L equ 0FD9h ;# 
   280                           # 2270 "C:\Program Files\HI-TECH Software\PICC-18\9.80\include\pic18f2520.h"
   281  0000                     FSR2H equ 0FDAh ;# 
   282                           # 2282 "C:\Program Files\HI-TECH Software\PICC-18\9.80\include\pic18f2520.h"
   283  0000                     PLUSW2 equ 0FDBh ;# 
   284                           # 2294 "C:\Program Files\HI-TECH Software\PICC-18\9.80\include\pic18f2520.h"
   285  0000                     PREINC2 equ 0FDCh ;# 
   286                           # 2306 "C:\Program Files\HI-TECH Software\PICC-18\9.80\include\pic18f2520.h"
   287  0000                     POSTDEC2 equ 0FDDh ;# 
   288                           # 2318 "C:\Program Files\HI-TECH Software\PICC-18\9.80\include\pic18f2520.h"
   289  0000                     POSTINC2 equ 0FDEh ;# 
   290                           # 2330 "C:\Program Files\HI-TECH Software\PICC-18\9.80\include\pic18f2520.h"
   291  0000                     INDF2 equ 0FDFh ;# 
   292                           # 2342 "C:\Program Files\HI-TECH Software\PICC-18\9.80\include\pic18f2520.h"
   293  0000                     BSR equ 0FE0h ;# 
   294                           # 2354 "C:\Program Files\HI-TECH Software\PICC-18\9.80\include\pic18f2520.h"
   295  0000                     FSR1 equ 0FE1h ;# 
   296                           # 2366 "C:\Program Files\HI-TECH Software\PICC-18\9.80\include\pic18f2520.h"
   297  0000                     FSR1L equ 0FE1h ;# 
   298                           # 2378 "C:\Program Files\HI-TECH Software\PICC-18\9.80\include\pic18f2520.h"
   299  0000                     FSR1H equ 0FE2h ;# 
   300                           # 2390 "C:\Program Files\HI-TECH Software\PICC-18\9.80\include\pic18f2520.h"
   301  0000                     PLUSW1 equ 0FE3h ;# 
   302                           # 2402 "C:\Program Files\HI-TECH Software\PICC-18\9.80\include\pic18f2520.h"
   303  0000                     PREINC1 equ 0FE4h ;# 
   304                           # 2414 "C:\Program Files\HI-TECH Software\PICC-18\9.80\include\pic18f2520.h"
   305  0000                     POSTDEC1 equ 0FE5h ;# 
   306                           # 2426 "C:\Program Files\HI-TECH Software\PICC-18\9.80\include\pic18f2520.h"
   307  0000                     POSTINC1 equ 0FE6h ;# 
   308                           # 2438 "C:\Program Files\HI-TECH Software\PICC-18\9.80\include\pic18f2520.h"
   309  0000                     INDF1 equ 0FE7h ;# 
   310                           # 2450 "C:\Program Files\HI-TECH Software\PICC-18\9.80\include\pic18f2520.h"
   311  0000                     WREG equ 0FE8h ;# 
   312                           # 2473 "C:\Program Files\HI-TECH Software\PICC-18\9.80\include\pic18f2520.h"
   313  0000                     FSR0 equ 0FE9h ;# 
   314                           # 2485 "C:\Program Files\HI-TECH Software\PICC-18\9.80\include\pic18f2520.h"
   315  0000                     FSR0L equ 0FE9h ;# 
   316                           # 2497 "C:\Program Files\HI-TECH Software\PICC-18\9.80\include\pic18f2520.h"
   317  0000                     FSR0H equ 0FEAh ;# 
   318                           # 2509 "C:\Program Files\HI-TECH Software\PICC-18\9.80\include\pic18f2520.h"
   319  0000                     PLUSW0 equ 0FEBh ;# 
   320                           # 2521 "C:\Program Files\HI-TECH Software\PICC-18\9.80\include\pic18f2520.h"
   321  0000                     PREINC0 equ 0FECh ;# 
   322                           # 2533 "C:\Program Files\HI-TECH Software\PICC-18\9.80\include\pic18f2520.h"
   323  0000                     POSTDEC0 equ 0FEDh ;# 
   324                           # 2545 "C:\Program Files\HI-TECH Software\PICC-18\9.80\include\pic18f2520.h"
   325  0000                     POSTINC0 equ 0FEEh ;# 
   326                           # 2557 "C:\Program Files\HI-TECH Software\PICC-18\9.80\include\pic18f2520.h"
   327  0000                     INDF0 equ 0FEFh ;# 
   328                           # 2569 "C:\Program Files\HI-TECH Software\PICC-18\9.80\include\pic18f2520.h"
   329  0000                     INTCON3 equ 0FF0h ;# 
   330                           # 2598 "C:\Program Files\HI-TECH Software\PICC-18\9.80\include\pic18f2520.h"
   331  0000                     INTCON2 equ 0FF1h ;# 
   332                           # 2625 "C:\Program Files\HI-TECH Software\PICC-18\9.80\include\pic18f2520.h"
   333  0000                     INTCON equ 0FF2h ;# 
   334                           # 2689 "C:\Program Files\HI-TECH Software\PICC-18\9.80\include\pic18f2520.h"
   335  0000                     PROD equ 0FF3h ;# 
   336                           # 2701 "C:\Program Files\HI-TECH Software\PICC-18\9.80\include\pic18f2520.h"
   337  0000                     PRODL equ 0FF3h ;# 
   338                           # 2713 "C:\Program Files\HI-TECH Software\PICC-18\9.80\include\pic18f2520.h"
   339  0000                     PRODH equ 0FF4h ;# 
   340                           # 2725 "C:\Program Files\HI-TECH Software\PICC-18\9.80\include\pic18f2520.h"
   341  0000                     TABLAT equ 0FF5h ;# 
   342                           # 2737 "C:\Program Files\HI-TECH Software\PICC-18\9.80\include\pic18f2520.h"
   343  0000                     TBLPTR equ 0FF6h ;# 
   344                           # 2750 "C:\Program Files\HI-TECH Software\PICC-18\9.80\include\pic18f2520.h"
   345  0000                     TBLPTRL equ 0FF6h ;# 
   346                           # 2762 "C:\Program Files\HI-TECH Software\PICC-18\9.80\include\pic18f2520.h"
   347  0000                     TBLPTRH equ 0FF7h ;# 
   348                           # 2774 "C:\Program Files\HI-TECH Software\PICC-18\9.80\include\pic18f2520.h"
   349  0000                     TBLPTRU equ 0FF8h ;# 
   350                           # 2787 "C:\Program Files\HI-TECH Software\PICC-18\9.80\include\pic18f2520.h"
   351  0000                     PCLAT equ 0FF9h ;# 
   352                           # 2792 "C:\Program Files\HI-TECH Software\PICC-18\9.80\include\pic18f2520.h"
   353  0000                     PC equ 0FF9h ;# 
   354                           # 2810 "C:\Program Files\HI-TECH Software\PICC-18\9.80\include\pic18f2520.h"
   355  0000                     PCL equ 0FF9h ;# 
   356                           # 2822 "C:\Program Files\HI-TECH Software\PICC-18\9.80\include\pic18f2520.h"
   357  0000                     PCLATH equ 0FFAh ;# 
   358                           # 2834 "C:\Program Files\HI-TECH Software\PICC-18\9.80\include\pic18f2520.h"
   359  0000                     PCLATU equ 0FFBh ;# 
   360                           # 2846 "C:\Program Files\HI-TECH Software\PICC-18\9.80\include\pic18f2520.h"
   361  0000                     STKPTR equ 0FFCh ;# 
   362                           # 2870 "C:\Program Files\HI-TECH Software\PICC-18\9.80\include\pic18f2520.h"
   363  0000                     TOS equ 0FFDh ;# 
   364                           # 2882 "C:\Program Files\HI-TECH Software\PICC-18\9.80\include\pic18f2520.h"
   365  0000                     TOSL equ 0FFDh ;# 
   366                           # 2894 "C:\Program Files\HI-TECH Software\PICC-18\9.80\include\pic18f2520.h"
   367  0000                     TOSH equ 0FFEh ;# 
   368                           # 2906 "C:\Program Files\HI-TECH Software\PICC-18\9.80\include\pic18f2520.h"
   369  0000                     TOSU equ 0FFFh ;# 
   370                           # 19 "C:\Program Files\HI-TECH Software\PICC-18\9.80\include\pic18f2520.h"
   371  0000                     PORTA equ 0F80h ;# 
   372                           # 90 "C:\Program Files\HI-TECH Software\PICC-18\9.80\include\pic18f2520.h"
   373  0000                     PORTB equ 0F81h ;# 
   374                           # 139 "C:\Program Files\HI-TECH Software\PICC-18\9.80\include\pic18f2520.h"
   375  0000                     PORTC equ 0F82h ;# 
   376                           # 192 "C:\Program Files\HI-TECH Software\PICC-18\9.80\include\pic18f2520.h"
   377  0000                     PORTE equ 0F84h ;# 
   378                           # 317 "C:\Program Files\HI-TECH Software\PICC-18\9.80\include\pic18f2520.h"
   379  0000                     LATA equ 0F89h ;# 
   380                           # 370 "C:\Program Files\HI-TECH Software\PICC-18\9.80\include\pic18f2520.h"
   381  0000                     LATB equ 0F8Ah ;# 
   382                           # 423 "C:\Program Files\HI-TECH Software\PICC-18\9.80\include\pic18f2520.h"
   383  0000                     LATC equ 0F8Bh ;# 
   384                           # 476 "C:\Program Files\HI-TECH Software\PICC-18\9.80\include\pic18f2520.h"
   385  0000                     TRISA equ 0F92h ;# 
   386                           # 481 "C:\Program Files\HI-TECH Software\PICC-18\9.80\include\pic18f2520.h"
   387  0000                     DDRA equ 0F92h ;# 
   388                           # 539 "C:\Program Files\HI-TECH Software\PICC-18\9.80\include\pic18f2520.h"
   389  0000                     TRISB equ 0F93h ;# 
   390                           # 544 "C:\Program Files\HI-TECH Software\PICC-18\9.80\include\pic18f2520.h"
   391  0000                     DDRB equ 0F93h ;# 
   392                           # 602 "C:\Program Files\HI-TECH Software\PICC-18\9.80\include\pic18f2520.h"
   393  0000                     TRISC equ 0F94h ;# 
   394                           # 607 "C:\Program Files\HI-TECH Software\PICC-18\9.80\include\pic18f2520.h"
   395  0000                     DDRC equ 0F94h ;# 
   396                           # 665 "C:\Program Files\HI-TECH Software\PICC-18\9.80\include\pic18f2520.h"
   397  0000                     OSCTUNE equ 0F9Bh ;# 
   398                           # 687 "C:\Program Files\HI-TECH Software\PICC-18\9.80\include\pic18f2520.h"
   399  0000                     PIE1 equ 0F9Dh ;# 
   400                           # 713 "C:\Program Files\HI-TECH Software\PICC-18\9.80\include\pic18f2520.h"
   401  0000                     PIR1 equ 0F9Eh ;# 
   402                           # 747 "C:\Program Files\HI-TECH Software\PICC-18\9.80\include\pic18f2520.h"
   403  0000                     IPR1 equ 0F9Fh ;# 
   404                           # 773 "C:\Program Files\HI-TECH Software\PICC-18\9.80\include\pic18f2520.h"
   405  0000                     PIE2 equ 0FA0h ;# 
   406                           # 796 "C:\Program Files\HI-TECH Software\PICC-18\9.80\include\pic18f2520.h"
   407  0000                     PIR2 equ 0FA1h ;# 
   408                           # 819 "C:\Program Files\HI-TECH Software\PICC-18\9.80\include\pic18f2520.h"
   409  0000                     IPR2 equ 0FA2h ;# 
   410                           # 842 "C:\Program Files\HI-TECH Software\PICC-18\9.80\include\pic18f2520.h"
   411  0000                     EECON1 equ 0FA6h ;# 
   412                           # 865 "C:\Program Files\HI-TECH Software\PICC-18\9.80\include\pic18f2520.h"
   413  0000                     EECON2 equ 0FA7h ;# 
   414                           # 877 "C:\Program Files\HI-TECH Software\PICC-18\9.80\include\pic18f2520.h"
   415  0000                     EEDATA equ 0FA8h ;# 
   416                           # 889 "C:\Program Files\HI-TECH Software\PICC-18\9.80\include\pic18f2520.h"
   417  0000                     EEADR equ 0FA9h ;# 
   418                           # 901 "C:\Program Files\HI-TECH Software\PICC-18\9.80\include\pic18f2520.h"
   419  0000                     RCSTA equ 0FABh ;# 
   420                           # 906 "C:\Program Files\HI-TECH Software\PICC-18\9.80\include\pic18f2520.h"
   421  0000                     RCSTA1 equ 0FABh ;# 
   422                           # 954 "C:\Program Files\HI-TECH Software\PICC-18\9.80\include\pic18f2520.h"
   423  0000                     TXSTA equ 0FACh ;# 
   424                           # 959 "C:\Program Files\HI-TECH Software\PICC-18\9.80\include\pic18f2520.h"
   425  0000                     TXSTA1 equ 0FACh ;# 
   426                           # 1053 "C:\Program Files\HI-TECH Software\PICC-18\9.80\include\pic18f2520.h"
   427  0000                     TXREG equ 0FADh ;# 
   428                           # 1058 "C:\Program Files\HI-TECH Software\PICC-18\9.80\include\pic18f2520.h"
   429  0000                     TXREG1 equ 0FADh ;# 
   430                           # 1076 "C:\Program Files\HI-TECH Software\PICC-18\9.80\include\pic18f2520.h"
   431  0000                     RCREG equ 0FAEh ;# 
   432                           # 1081 "C:\Program Files\HI-TECH Software\PICC-18\9.80\include\pic18f2520.h"
   433  0000                     RCREG1 equ 0FAEh ;# 
   434                           # 1099 "C:\Program Files\HI-TECH Software\PICC-18\9.80\include\pic18f2520.h"
   435  0000                     SPBRG equ 0FAFh ;# 
   436                           # 1104 "C:\Program Files\HI-TECH Software\PICC-18\9.80\include\pic18f2520.h"
   437  0000                     SPBRG1 equ 0FAFh ;# 
   438                           # 1122 "C:\Program Files\HI-TECH Software\PICC-18\9.80\include\pic18f2520.h"
   439  0000                     SPBRGH equ 0FB0h ;# 
   440                           # 1134 "C:\Program Files\HI-TECH Software\PICC-18\9.80\include\pic18f2520.h"
   441  0000                     T3CON equ 0FB1h ;# 
   442                           # 1175 "C:\Program Files\HI-TECH Software\PICC-18\9.80\include\pic18f2520.h"
   443  0000                     TMR3 equ 0FB2h ;# 
   444                           # 1187 "C:\Program Files\HI-TECH Software\PICC-18\9.80\include\pic18f2520.h"
   445  0000                     TMR3L equ 0FB2h ;# 
   446                           # 1199 "C:\Program Files\HI-TECH Software\PICC-18\9.80\include\pic18f2520.h"
   447  0000                     TMR3H equ 0FB3h ;# 
   448                           # 1211 "C:\Program Files\HI-TECH Software\PICC-18\9.80\include\pic18f2520.h"
   449  0000                     CMCON equ 0FB4h ;# 
   450                           # 1244 "C:\Program Files\HI-TECH Software\PICC-18\9.80\include\pic18f2520.h"
   451  0000                     CVRCON equ 0FB5h ;# 
   452                           # 1270 "C:\Program Files\HI-TECH Software\PICC-18\9.80\include\pic18f2520.h"
   453  0000                     ECCP1AS equ 0FB6h ;# 
   454                           # 1275 "C:\Program Files\HI-TECH Software\PICC-18\9.80\include\pic18f2520.h"
   455  0000                     ECCPAS equ 0FB6h ;# 
   456                           # 1315 "C:\Program Files\HI-TECH Software\PICC-18\9.80\include\pic18f2520.h"
   457  0000                     PWM1CON equ 0FB7h ;# 
   458                           # 1320 "C:\Program Files\HI-TECH Software\PICC-18\9.80\include\pic18f2520.h"
   459  0000                     ECCP1DEL equ 0FB7h ;# 
   460                           # 1340 "C:\Program Files\HI-TECH Software\PICC-18\9.80\include\pic18f2520.h"
   461  0000                     BAUDCON equ 0FB8h ;# 
   462                           # 1345 "C:\Program Files\HI-TECH Software\PICC-18\9.80\include\pic18f2520.h"
   463  0000                     BAUDCTL equ 0FB8h ;# 
   464                           # 1405 "C:\Program Files\HI-TECH Software\PICC-18\9.80\include\pic18f2520.h"
   465  0000                     CCP2CON equ 0FBAh ;# 
   466                           # 1431 "C:\Program Files\HI-TECH Software\PICC-18\9.80\include\pic18f2520.h"
   467  0000                     CCPR2 equ 0FBBh ;# 
   468                           # 1443 "C:\Program Files\HI-TECH Software\PICC-18\9.80\include\pic18f2520.h"
   469  0000                     CCPR2L equ 0FBBh ;# 
   470                           # 1455 "C:\Program Files\HI-TECH Software\PICC-18\9.80\include\pic18f2520.h"
   471  0000                     CCPR2H equ 0FBCh ;# 
   472                           # 1467 "C:\Program Files\HI-TECH Software\PICC-18\9.80\include\pic18f2520.h"
   473  0000                     CCP1CON equ 0FBDh ;# 
   474                           # 1493 "C:\Program Files\HI-TECH Software\PICC-18\9.80\include\pic18f2520.h"
   475  0000                     CCPR1 equ 0FBEh ;# 
   476                           # 1505 "C:\Program Files\HI-TECH Software\PICC-18\9.80\include\pic18f2520.h"
   477  0000                     CCPR1L equ 0FBEh ;# 
   478                           # 1517 "C:\Program Files\HI-TECH Software\PICC-18\9.80\include\pic18f2520.h"
   479  0000                     CCPR1H equ 0FBFh ;# 
   480                           # 1529 "C:\Program Files\HI-TECH Software\PICC-18\9.80\include\pic18f2520.h"
   481  0000                     ADCON2 equ 0FC0h ;# 
   482                           # 1552 "C:\Program Files\HI-TECH Software\PICC-18\9.80\include\pic18f2520.h"
   483  0000                     ADCON1 equ 0FC1h ;# 
   484                           # 1585 "C:\Program Files\HI-TECH Software\PICC-18\9.80\include\pic18f2520.h"
   485  0000                     ADCON0 equ 0FC2h ;# 
   486                           # 1640 "C:\Program Files\HI-TECH Software\PICC-18\9.80\include\pic18f2520.h"
   487  0000                     ADRES equ 0FC3h ;# 
   488                           # 1652 "C:\Program Files\HI-TECH Software\PICC-18\9.80\include\pic18f2520.h"
   489  0000                     ADRESL equ 0FC3h ;# 
   490                           # 1664 "C:\Program Files\HI-TECH Software\PICC-18\9.80\include\pic18f2520.h"
   491  0000                     ADRESH equ 0FC4h ;# 
   492                           # 1676 "C:\Program Files\HI-TECH Software\PICC-18\9.80\include\pic18f2520.h"
   493  0000                     SSPCON2 equ 0FC5h ;# 
   494                           # 1703 "C:\Program Files\HI-TECH Software\PICC-18\9.80\include\pic18f2520.h"
   495  0000                     SSPCON1 equ 0FC6h ;# 
   496                           # 1725 "C:\Program Files\HI-TECH Software\PICC-18\9.80\include\pic18f2520.h"
   497  0000                     SSPSTAT equ 0FC7h ;# 
   498                           # 1832 "C:\Program Files\HI-TECH Software\PICC-18\9.80\include\pic18f2520.h"
   499  0000                     SSPADD equ 0FC8h ;# 
   500                           # 1844 "C:\Program Files\HI-TECH Software\PICC-18\9.80\include\pic18f2520.h"
   501  0000                     SSPBUF equ 0FC9h ;# 
   502                           # 1856 "C:\Program Files\HI-TECH Software\PICC-18\9.80\include\pic18f2520.h"
   503  0000                     T2CON equ 0FCAh ;# 
   504                           # 1886 "C:\Program Files\HI-TECH Software\PICC-18\9.80\include\pic18f2520.h"
   505  0000                     PR2 equ 0FCBh ;# 
   506                           # 1891 "C:\Program Files\HI-TECH Software\PICC-18\9.80\include\pic18f2520.h"
   507  0000                     MEMCON equ 0FCBh ;# 
   508                           # 1909 "C:\Program Files\HI-TECH Software\PICC-18\9.80\include\pic18f2520.h"
   509  0000                     TMR2 equ 0FCCh ;# 
   510                           # 1921 "C:\Program Files\HI-TECH Software\PICC-18\9.80\include\pic18f2520.h"
   511  0000                     T1CON equ 0FCDh ;# 
   512                           # 1958 "C:\Program Files\HI-TECH Software\PICC-18\9.80\include\pic18f2520.h"
   513  0000                     TMR1 equ 0FCEh ;# 
   514                           # 1970 "C:\Program Files\HI-TECH Software\PICC-18\9.80\include\pic18f2520.h"
   515  0000                     TMR1L equ 0FCEh ;# 
   516                           # 1982 "C:\Program Files\HI-TECH Software\PICC-18\9.80\include\pic18f2520.h"
   517  0000                     TMR1H equ 0FCFh ;# 
   518                           # 1994 "C:\Program Files\HI-TECH Software\PICC-18\9.80\include\pic18f2520.h"
   519  0000                     RCON equ 0FD0h ;# 
   520                           # 2039 "C:\Program Files\HI-TECH Software\PICC-18\9.80\include\pic18f2520.h"
   521  0000                     WDTCON equ 0FD1h ;# 
   522                           # 2054 "C:\Program Files\HI-TECH Software\PICC-18\9.80\include\pic18f2520.h"
   523  0000                     HLVDCON equ 0FD2h ;# 
   524                           # 2059 "C:\Program Files\HI-TECH Software\PICC-18\9.80\include\pic18f2520.h"
   525  0000                     LVDCON equ 0FD2h ;# 
   526                           # 2129 "C:\Program Files\HI-TECH Software\PICC-18\9.80\include\pic18f2520.h"
   527  0000                     OSCCON equ 0FD3h ;# 
   528                           # 2154 "C:\Program Files\HI-TECH Software\PICC-18\9.80\include\pic18f2520.h"
   529  0000                     T0CON equ 0FD5h ;# 
   530                           # 2179 "C:\Program Files\HI-TECH Software\PICC-18\9.80\include\pic18f2520.h"
   531  0000                     TMR0 equ 0FD6h ;# 
   532                           # 2191 "C:\Program Files\HI-TECH Software\PICC-18\9.80\include\pic18f2520.h"
   533  0000                     TMR0L equ 0FD6h ;# 
   534                           # 2203 "C:\Program Files\HI-TECH Software\PICC-18\9.80\include\pic18f2520.h"
   535  0000                     TMR0H equ 0FD7h ;# 
   536                           # 2215 "C:\Program Files\HI-TECH Software\PICC-18\9.80\include\pic18f2520.h"
   537  0000                     STATUS equ 0FD8h ;# 
   538                           # 2246 "C:\Program Files\HI-TECH Software\PICC-18\9.80\include\pic18f2520.h"
   539  0000                     FSR2 equ 0FD9h ;# 
   540                           # 2258 "C:\Program Files\HI-TECH Software\PICC-18\9.80\include\pic18f2520.h"
   541  0000                     FSR2L equ 0FD9h ;# 
   542                           # 2270 "C:\Program Files\HI-TECH Software\PICC-18\9.80\include\pic18f2520.h"
   543  0000                     FSR2H equ 0FDAh ;# 
   544                           # 2282 "C:\Program Files\HI-TECH Software\PICC-18\9.80\include\pic18f2520.h"
   545  0000                     PLUSW2 equ 0FDBh ;# 
   546                           # 2294 "C:\Program Files\HI-TECH Software\PICC-18\9.80\include\pic18f2520.h"
   547  0000                     PREINC2 equ 0FDCh ;# 
   548                           # 2306 "C:\Program Files\HI-TECH Software\PICC-18\9.80\include\pic18f2520.h"
   549  0000                     POSTDEC2 equ 0FDDh ;# 
   550                           # 2318 "C:\Program Files\HI-TECH Software\PICC-18\9.80\include\pic18f2520.h"
   551  0000                     POSTINC2 equ 0FDEh ;# 
   552                           # 2330 "C:\Program Files\HI-TECH Software\PICC-18\9.80\include\pic18f2520.h"
   553  0000                     INDF2 equ 0FDFh ;# 
   554                           # 2342 "C:\Program Files\HI-TECH Software\PICC-18\9.80\include\pic18f2520.h"
   555  0000                     BSR equ 0FE0h ;# 
   556                           # 2354 "C:\Program Files\HI-TECH Software\PICC-18\9.80\include\pic18f2520.h"
   557  0000                     FSR1 equ 0FE1h ;# 
   558                           # 2366 "C:\Program Files\HI-TECH Software\PICC-18\9.80\include\pic18f2520.h"
   559  0000                     FSR1L equ 0FE1h ;# 
   560                           # 2378 "C:\Program Files\HI-TECH Software\PICC-18\9.80\include\pic18f2520.h"
   561  0000                     FSR1H equ 0FE2h ;# 
   562                           # 2390 "C:\Program Files\HI-TECH Software\PICC-18\9.80\include\pic18f2520.h"
   563  0000                     PLUSW1 equ 0FE3h ;# 
   564                           # 2402 "C:\Program Files\HI-TECH Software\PICC-18\9.80\include\pic18f2520.h"
   565  0000                     PREINC1 equ 0FE4h ;# 
   566                           # 2414 "C:\Program Files\HI-TECH Software\PICC-18\9.80\include\pic18f2520.h"
   567  0000                     POSTDEC1 equ 0FE5h ;# 
   568                           # 2426 "C:\Program Files\HI-TECH Software\PICC-18\9.80\include\pic18f2520.h"
   569  0000                     POSTINC1 equ 0FE6h ;# 
   570                           # 2438 "C:\Program Files\HI-TECH Software\PICC-18\9.80\include\pic18f2520.h"
   571  0000                     INDF1 equ 0FE7h ;# 
   572                           # 2450 "C:\Program Files\HI-TECH Software\PICC-18\9.80\include\pic18f2520.h"
   573  0000                     WREG equ 0FE8h ;# 
   574                           # 2473 "C:\Program Files\HI-TECH Software\PICC-18\9.80\include\pic18f2520.h"
   575  0000                     FSR0 equ 0FE9h ;# 
   576                           # 2485 "C:\Program Files\HI-TECH Software\PICC-18\9.80\include\pic18f2520.h"
   577  0000                     FSR0L equ 0FE9h ;# 
   578                           # 2497 "C:\Program Files\HI-TECH Software\PICC-18\9.80\include\pic18f2520.h"
   579  0000                     FSR0H equ 0FEAh ;# 
   580                           # 2509 "C:\Program Files\HI-TECH Software\PICC-18\9.80\include\pic18f2520.h"
   581  0000                     PLUSW0 equ 0FEBh ;# 
   582                           # 2521 "C:\Program Files\HI-TECH Software\PICC-18\9.80\include\pic18f2520.h"
   583  0000                     PREINC0 equ 0FECh ;# 
   584                           # 2533 "C:\Program Files\HI-TECH Software\PICC-18\9.80\include\pic18f2520.h"
   585  0000                     POSTDEC0 equ 0FEDh ;# 
   586                           # 2545 "C:\Program Files\HI-TECH Software\PICC-18\9.80\include\pic18f2520.h"
   587  0000                     POSTINC0 equ 0FEEh ;# 
   588                           # 2557 "C:\Program Files\HI-TECH Software\PICC-18\9.80\include\pic18f2520.h"
   589  0000                     INDF0 equ 0FEFh ;# 
   590                           # 2569 "C:\Program Files\HI-TECH Software\PICC-18\9.80\include\pic18f2520.h"
   591  0000                     INTCON3 equ 0FF0h ;# 
   592                           # 2598 "C:\Program Files\HI-TECH Software\PICC-18\9.80\include\pic18f2520.h"
   593  0000                     INTCON2 equ 0FF1h ;# 
   594                           # 2625 "C:\Program Files\HI-TECH Software\PICC-18\9.80\include\pic18f2520.h"
   595  0000                     INTCON equ 0FF2h ;# 
   596                           # 2689 "C:\Program Files\HI-TECH Software\PICC-18\9.80\include\pic18f2520.h"
   597  0000                     PROD equ 0FF3h ;# 
   598                           # 2701 "C:\Program Files\HI-TECH Software\PICC-18\9.80\include\pic18f2520.h"
   599  0000                     PRODL equ 0FF3h ;# 
   600                           # 2713 "C:\Program Files\HI-TECH Software\PICC-18\9.80\include\pic18f2520.h"
   601  0000                     PRODH equ 0FF4h ;# 
   602                           # 2725 "C:\Program Files\HI-TECH Software\PICC-18\9.80\include\pic18f2520.h"
   603  0000                     TABLAT equ 0FF5h ;# 
   604                           # 2737 "C:\Program Files\HI-TECH Software\PICC-18\9.80\include\pic18f2520.h"
   605  0000                     TBLPTR equ 0FF6h ;# 
   606                           # 2750 "C:\Program Files\HI-TECH Software\PICC-18\9.80\include\pic18f2520.h"
   607  0000                     TBLPTRL equ 0FF6h ;# 
   608                           # 2762 "C:\Program Files\HI-TECH Software\PICC-18\9.80\include\pic18f2520.h"
   609  0000                     TBLPTRH equ 0FF7h ;# 
   610                           # 2774 "C:\Program Files\HI-TECH Software\PICC-18\9.80\include\pic18f2520.h"
   611  0000                     TBLPTRU equ 0FF8h ;# 
   612                           # 2787 "C:\Program Files\HI-TECH Software\PICC-18\9.80\include\pic18f2520.h"
   613  0000                     PCLAT equ 0FF9h ;# 
   614                           # 2792 "C:\Program Files\HI-TECH Software\PICC-18\9.80\include\pic18f2520.h"
   615  0000                     PC equ 0FF9h ;# 
   616                           # 2810 "C:\Program Files\HI-TECH Software\PICC-18\9.80\include\pic18f2520.h"
   617  0000                     PCL equ 0FF9h ;# 
   618                           # 2822 "C:\Program Files\HI-TECH Software\PICC-18\9.80\include\pic18f2520.h"
   619  0000                     PCLATH equ 0FFAh ;# 
   620                           # 2834 "C:\Program Files\HI-TECH Software\PICC-18\9.80\include\pic18f2520.h"
   621  0000                     PCLATU equ 0FFBh ;# 
   622                           # 2846 "C:\Program Files\HI-TECH Software\PICC-18\9.80\include\pic18f2520.h"
   623  0000                     STKPTR equ 0FFCh ;# 
   624                           # 2870 "C:\Program Files\HI-TECH Software\PICC-18\9.80\include\pic18f2520.h"
   625  0000                     TOS equ 0FFDh ;# 
   626                           # 2882 "C:\Program Files\HI-TECH Software\PICC-18\9.80\include\pic18f2520.h"
   627  0000                     TOSL equ 0FFDh ;# 
   628                           # 2894 "C:\Program Files\HI-TECH Software\PICC-18\9.80\include\pic18f2520.h"
   629  0000                     TOSH equ 0FFEh ;# 
   630                           # 2906 "C:\Program Files\HI-TECH Software\PICC-18\9.80\include\pic18f2520.h"
   631  0000                     TOSU equ 0FFFh ;# 
   632                           # 19 "C:\Program Files\HI-TECH Software\PICC-18\9.80\include\pic18f2520.h"
   633  0000                     PORTA equ 0F80h ;# 
   634                           # 90 "C:\Program Files\HI-TECH Software\PICC-18\9.80\include\pic18f2520.h"
   635  0000                     PORTB equ 0F81h ;# 
   636                           # 139 "C:\Program Files\HI-TECH Software\PICC-18\9.80\include\pic18f2520.h"
   637  0000                     PORTC equ 0F82h ;# 
   638                           # 192 "C:\Program Files\HI-TECH Software\PICC-18\9.80\include\pic18f2520.h"
   639  0000                     PORTE equ 0F84h ;# 
   640                           # 317 "C:\Program Files\HI-TECH Software\PICC-18\9.80\include\pic18f2520.h"
   641  0000                     LATA equ 0F89h ;# 
   642                           # 370 "C:\Program Files\HI-TECH Software\PICC-18\9.80\include\pic18f2520.h"
   643  0000                     LATB equ 0F8Ah ;# 
   644                           # 423 "C:\Program Files\HI-TECH Software\PICC-18\9.80\include\pic18f2520.h"
   645  0000                     LATC equ 0F8Bh ;# 
   646                           # 476 "C:\Program Files\HI-TECH Software\PICC-18\9.80\include\pic18f2520.h"
   647  0000                     TRISA equ 0F92h ;# 
   648                           # 481 "C:\Program Files\HI-TECH Software\PICC-18\9.80\include\pic18f2520.h"
   649  0000                     DDRA equ 0F92h ;# 
   650                           # 539 "C:\Program Files\HI-TECH Software\PICC-18\9.80\include\pic18f2520.h"
   651  0000                     TRISB equ 0F93h ;# 
   652                           # 544 "C:\Program Files\HI-TECH Software\PICC-18\9.80\include\pic18f2520.h"
   653  0000                     DDRB equ 0F93h ;# 
   654                           # 602 "C:\Program Files\HI-TECH Software\PICC-18\9.80\include\pic18f2520.h"
   655  0000                     TRISC equ 0F94h ;# 
   656                           # 607 "C:\Program Files\HI-TECH Software\PICC-18\9.80\include\pic18f2520.h"
   657  0000                     DDRC equ 0F94h ;# 
   658                           # 665 "C:\Program Files\HI-TECH Software\PICC-18\9.80\include\pic18f2520.h"
   659  0000                     OSCTUNE equ 0F9Bh ;# 
   660                           # 687 "C:\Program Files\HI-TECH Software\PICC-18\9.80\include\pic18f2520.h"
   661  0000                     PIE1 equ 0F9Dh ;# 
   662                           # 713 "C:\Program Files\HI-TECH Software\PICC-18\9.80\include\pic18f2520.h"
   663  0000                     PIR1 equ 0F9Eh ;# 
   664                           # 747 "C:\Program Files\HI-TECH Software\PICC-18\9.80\include\pic18f2520.h"
   665  0000                     IPR1 equ 0F9Fh ;# 
   666                           # 773 "C:\Program Files\HI-TECH Software\PICC-18\9.80\include\pic18f2520.h"
   667  0000                     PIE2 equ 0FA0h ;# 
   668                           # 796 "C:\Program Files\HI-TECH Software\PICC-18\9.80\include\pic18f2520.h"
   669  0000                     PIR2 equ 0FA1h ;# 
   670                           # 819 "C:\Program Files\HI-TECH Software\PICC-18\9.80\include\pic18f2520.h"
   671  0000                     IPR2 equ 0FA2h ;# 
   672                           # 842 "C:\Program Files\HI-TECH Software\PICC-18\9.80\include\pic18f2520.h"
   673  0000                     EECON1 equ 0FA6h ;# 
   674                           # 865 "C:\Program Files\HI-TECH Software\PICC-18\9.80\include\pic18f2520.h"
   675  0000                     EECON2 equ 0FA7h ;# 
   676                           # 877 "C:\Program Files\HI-TECH Software\PICC-18\9.80\include\pic18f2520.h"
   677  0000                     EEDATA equ 0FA8h ;# 
   678                           # 889 "C:\Program Files\HI-TECH Software\PICC-18\9.80\include\pic18f2520.h"
   679  0000                     EEADR equ 0FA9h ;# 
   680                           # 901 "C:\Program Files\HI-TECH Software\PICC-18\9.80\include\pic18f2520.h"
   681  0000                     RCSTA equ 0FABh ;# 
   682                           # 906 "C:\Program Files\HI-TECH Software\PICC-18\9.80\include\pic18f2520.h"
   683  0000                     RCSTA1 equ 0FABh ;# 
   684                           # 954 "C:\Program Files\HI-TECH Software\PICC-18\9.80\include\pic18f2520.h"
   685  0000                     TXSTA equ 0FACh ;# 
   686                           # 959 "C:\Program Files\HI-TECH Software\PICC-18\9.80\include\pic18f2520.h"
   687  0000                     TXSTA1 equ 0FACh ;# 
   688                           # 1053 "C:\Program Files\HI-TECH Software\PICC-18\9.80\include\pic18f2520.h"
   689  0000                     TXREG equ 0FADh ;# 
   690                           # 1058 "C:\Program Files\HI-TECH Software\PICC-18\9.80\include\pic18f2520.h"
   691  0000                     TXREG1 equ 0FADh ;# 
   692                           # 1076 "C:\Program Files\HI-TECH Software\PICC-18\9.80\include\pic18f2520.h"
   693  0000                     RCREG equ 0FAEh ;# 
   694                           # 1081 "C:\Program Files\HI-TECH Software\PICC-18\9.80\include\pic18f2520.h"
   695  0000                     RCREG1 equ 0FAEh ;# 
   696                           # 1099 "C:\Program Files\HI-TECH Software\PICC-18\9.80\include\pic18f2520.h"
   697  0000                     SPBRG equ 0FAFh ;# 
   698                           # 1104 "C:\Program Files\HI-TECH Software\PICC-18\9.80\include\pic18f2520.h"
   699  0000                     SPBRG1 equ 0FAFh ;# 
   700                           # 1122 "C:\Program Files\HI-TECH Software\PICC-18\9.80\include\pic18f2520.h"
   701  0000                     SPBRGH equ 0FB0h ;# 
   702                           # 1134 "C:\Program Files\HI-TECH Software\PICC-18\9.80\include\pic18f2520.h"
   703  0000                     T3CON equ 0FB1h ;# 
   704                           # 1175 "C:\Program Files\HI-TECH Software\PICC-18\9.80\include\pic18f2520.h"
   705  0000                     TMR3 equ 0FB2h ;# 
   706                           # 1187 "C:\Program Files\HI-TECH Software\PICC-18\9.80\include\pic18f2520.h"
   707  0000                     TMR3L equ 0FB2h ;# 
   708                           # 1199 "C:\Program Files\HI-TECH Software\PICC-18\9.80\include\pic18f2520.h"
   709  0000                     TMR3H equ 0FB3h ;# 
   710                           # 1211 "C:\Program Files\HI-TECH Software\PICC-18\9.80\include\pic18f2520.h"
   711  0000                     CMCON equ 0FB4h ;# 
   712                           # 1244 "C:\Program Files\HI-TECH Software\PICC-18\9.80\include\pic18f2520.h"
   713  0000                     CVRCON equ 0FB5h ;# 
   714                           # 1270 "C:\Program Files\HI-TECH Software\PICC-18\9.80\include\pic18f2520.h"
   715  0000                     ECCP1AS equ 0FB6h ;# 
   716                           # 1275 "C:\Program Files\HI-TECH Software\PICC-18\9.80\include\pic18f2520.h"
   717  0000                     ECCPAS equ 0FB6h ;# 
   718                           # 1315 "C:\Program Files\HI-TECH Software\PICC-18\9.80\include\pic18f2520.h"
   719  0000                     PWM1CON equ 0FB7h ;# 
   720                           # 1320 "C:\Program Files\HI-TECH Software\PICC-18\9.80\include\pic18f2520.h"
   721  0000                     ECCP1DEL equ 0FB7h ;# 
   722                           # 1340 "C:\Program Files\HI-TECH Software\PICC-18\9.80\include\pic18f2520.h"
   723  0000                     BAUDCON equ 0FB8h ;# 
   724                           # 1345 "C:\Program Files\HI-TECH Software\PICC-18\9.80\include\pic18f2520.h"
   725  0000                     BAUDCTL equ 0FB8h ;# 
   726                           # 1405 "C:\Program Files\HI-TECH Software\PICC-18\9.80\include\pic18f2520.h"
   727  0000                     CCP2CON equ 0FBAh ;# 
   728                           # 1431 "C:\Program Files\HI-TECH Software\PICC-18\9.80\include\pic18f2520.h"
   729  0000                     CCPR2 equ 0FBBh ;# 
   730                           # 1443 "C:\Program Files\HI-TECH Software\PICC-18\9.80\include\pic18f2520.h"
   731  0000                     CCPR2L equ 0FBBh ;# 
   732                           # 1455 "C:\Program Files\HI-TECH Software\PICC-18\9.80\include\pic18f2520.h"
   733  0000                     CCPR2H equ 0FBCh ;# 
   734                           # 1467 "C:\Program Files\HI-TECH Software\PICC-18\9.80\include\pic18f2520.h"
   735  0000                     CCP1CON equ 0FBDh ;# 
   736                           # 1493 "C:\Program Files\HI-TECH Software\PICC-18\9.80\include\pic18f2520.h"
   737  0000                     CCPR1 equ 0FBEh ;# 
   738                           # 1505 "C:\Program Files\HI-TECH Software\PICC-18\9.80\include\pic18f2520.h"
   739  0000                     CCPR1L equ 0FBEh ;# 
   740                           # 1517 "C:\Program Files\HI-TECH Software\PICC-18\9.80\include\pic18f2520.h"
   741  0000                     CCPR1H equ 0FBFh ;# 
   742                           # 1529 "C:\Program Files\HI-TECH Software\PICC-18\9.80\include\pic18f2520.h"
   743  0000                     ADCON2 equ 0FC0h ;# 
   744                           # 1552 "C:\Program Files\HI-TECH Software\PICC-18\9.80\include\pic18f2520.h"
   745  0000                     ADCON1 equ 0FC1h ;# 
   746                           # 1585 "C:\Program Files\HI-TECH Software\PICC-18\9.80\include\pic18f2520.h"
   747  0000                     ADCON0 equ 0FC2h ;# 
   748                           # 1640 "C:\Program Files\HI-TECH Software\PICC-18\9.80\include\pic18f2520.h"
   749  0000                     ADRES equ 0FC3h ;# 
   750                           # 1652 "C:\Program Files\HI-TECH Software\PICC-18\9.80\include\pic18f2520.h"
   751  0000                     ADRESL equ 0FC3h ;# 
   752                           # 1664 "C:\Program Files\HI-TECH Software\PICC-18\9.80\include\pic18f2520.h"
   753  0000                     ADRESH equ 0FC4h ;# 
   754                           # 1676 "C:\Program Files\HI-TECH Software\PICC-18\9.80\include\pic18f2520.h"
   755  0000                     SSPCON2 equ 0FC5h ;# 
   756                           # 1703 "C:\Program Files\HI-TECH Software\PICC-18\9.80\include\pic18f2520.h"
   757  0000                     SSPCON1 equ 0FC6h ;# 
   758                           # 1725 "C:\Program Files\HI-TECH Software\PICC-18\9.80\include\pic18f2520.h"
   759  0000                     SSPSTAT equ 0FC7h ;# 
   760                           # 1832 "C:\Program Files\HI-TECH Software\PICC-18\9.80\include\pic18f2520.h"
   761  0000                     SSPADD equ 0FC8h ;# 
   762                           # 1844 "C:\Program Files\HI-TECH Software\PICC-18\9.80\include\pic18f2520.h"
   763  0000                     SSPBUF equ 0FC9h ;# 
   764                           # 1856 "C:\Program Files\HI-TECH Software\PICC-18\9.80\include\pic18f2520.h"
   765  0000                     T2CON equ 0FCAh ;# 
   766                           # 1886 "C:\Program Files\HI-TECH Software\PICC-18\9.80\include\pic18f2520.h"
   767  0000                     PR2 equ 0FCBh ;# 
   768                           # 1891 "C:\Program Files\HI-TECH Software\PICC-18\9.80\include\pic18f2520.h"
   769  0000                     MEMCON equ 0FCBh ;# 
   770                           # 1909 "C:\Program Files\HI-TECH Software\PICC-18\9.80\include\pic18f2520.h"
   771  0000                     TMR2 equ 0FCCh ;# 
   772                           # 1921 "C:\Program Files\HI-TECH Software\PICC-18\9.80\include\pic18f2520.h"
   773  0000                     T1CON equ 0FCDh ;# 
   774                           # 1958 "C:\Program Files\HI-TECH Software\PICC-18\9.80\include\pic18f2520.h"
   775  0000                     TMR1 equ 0FCEh ;# 
   776                           # 1970 "C:\Program Files\HI-TECH Software\PICC-18\9.80\include\pic18f2520.h"
   777  0000                     TMR1L equ 0FCEh ;# 
   778                           # 1982 "C:\Program Files\HI-TECH Software\PICC-18\9.80\include\pic18f2520.h"
   779  0000                     TMR1H equ 0FCFh ;# 
   780                           # 1994 "C:\Program Files\HI-TECH Software\PICC-18\9.80\include\pic18f2520.h"
   781  0000                     RCON equ 0FD0h ;# 
   782                           # 2039 "C:\Program Files\HI-TECH Software\PICC-18\9.80\include\pic18f2520.h"
   783  0000                     WDTCON equ 0FD1h ;# 
   784                           # 2054 "C:\Program Files\HI-TECH Software\PICC-18\9.80\include\pic18f2520.h"
   785  0000                     HLVDCON equ 0FD2h ;# 
   786                           # 2059 "C:\Program Files\HI-TECH Software\PICC-18\9.80\include\pic18f2520.h"
   787  0000                     LVDCON equ 0FD2h ;# 
   788                           # 2129 "C:\Program Files\HI-TECH Software\PICC-18\9.80\include\pic18f2520.h"
   789  0000                     OSCCON equ 0FD3h ;# 
   790                           # 2154 "C:\Program Files\HI-TECH Software\PICC-18\9.80\include\pic18f2520.h"
   791  0000                     T0CON equ 0FD5h ;# 
   792                           # 2179 "C:\Program Files\HI-TECH Software\PICC-18\9.80\include\pic18f2520.h"
   793  0000                     TMR0 equ 0FD6h ;# 
   794                           # 2191 "C:\Program Files\HI-TECH Software\PICC-18\9.80\include\pic18f2520.h"
   795  0000                     TMR0L equ 0FD6h ;# 
   796                           # 2203 "C:\Program Files\HI-TECH Software\PICC-18\9.80\include\pic18f2520.h"
   797  0000                     TMR0H equ 0FD7h ;# 
   798                           # 2215 "C:\Program Files\HI-TECH Software\PICC-18\9.80\include\pic18f2520.h"
   799  0000                     STATUS equ 0FD8h ;# 
   800                           # 2246 "C:\Program Files\HI-TECH Software\PICC-18\9.80\include\pic18f2520.h"
   801  0000                     FSR2 equ 0FD9h ;# 
   802                           # 2258 "C:\Program Files\HI-TECH Software\PICC-18\9.80\include\pic18f2520.h"
   803  0000                     FSR2L equ 0FD9h ;# 
   804                           # 2270 "C:\Program Files\HI-TECH Software\PICC-18\9.80\include\pic18f2520.h"
   805  0000                     FSR2H equ 0FDAh ;# 
   806                           # 2282 "C:\Program Files\HI-TECH Software\PICC-18\9.80\include\pic18f2520.h"
   807  0000                     PLUSW2 equ 0FDBh ;# 
   808                           # 2294 "C:\Program Files\HI-TECH Software\PICC-18\9.80\include\pic18f2520.h"
   809  0000                     PREINC2 equ 0FDCh ;# 
   810                           # 2306 "C:\Program Files\HI-TECH Software\PICC-18\9.80\include\pic18f2520.h"
   811  0000                     POSTDEC2 equ 0FDDh ;# 
   812                           # 2318 "C:\Program Files\HI-TECH Software\PICC-18\9.80\include\pic18f2520.h"
   813  0000                     POSTINC2 equ 0FDEh ;# 
   814                           # 2330 "C:\Program Files\HI-TECH Software\PICC-18\9.80\include\pic18f2520.h"
   815  0000                     INDF2 equ 0FDFh ;# 
   816                           # 2342 "C:\Program Files\HI-TECH Software\PICC-18\9.80\include\pic18f2520.h"
   817  0000                     BSR equ 0FE0h ;# 
   818                           # 2354 "C:\Program Files\HI-TECH Software\PICC-18\9.80\include\pic18f2520.h"
   819  0000                     FSR1 equ 0FE1h ;# 
   820                           # 2366 "C:\Program Files\HI-TECH Software\PICC-18\9.80\include\pic18f2520.h"
   821  0000                     FSR1L equ 0FE1h ;# 
   822                           # 2378 "C:\Program Files\HI-TECH Software\PICC-18\9.80\include\pic18f2520.h"
   823  0000                     FSR1H equ 0FE2h ;# 
   824                           # 2390 "C:\Program Files\HI-TECH Software\PICC-18\9.80\include\pic18f2520.h"
   825  0000                     PLUSW1 equ 0FE3h ;# 
   826                           # 2402 "C:\Program Files\HI-TECH Software\PICC-18\9.80\include\pic18f2520.h"
   827  0000                     PREINC1 equ 0FE4h ;# 
   828                           # 2414 "C:\Program Files\HI-TECH Software\PICC-18\9.80\include\pic18f2520.h"
   829  0000                     POSTDEC1 equ 0FE5h ;# 
   830                           # 2426 "C:\Program Files\HI-TECH Software\PICC-18\9.80\include\pic18f2520.h"
   831  0000                     POSTINC1 equ 0FE6h ;# 
   832                           # 2438 "C:\Program Files\HI-TECH Software\PICC-18\9.80\include\pic18f2520.h"
   833  0000                     INDF1 equ 0FE7h ;# 
   834                           # 2450 "C:\Program Files\HI-TECH Software\PICC-18\9.80\include\pic18f2520.h"
   835  0000                     WREG equ 0FE8h ;# 
   836                           # 2473 "C:\Program Files\HI-TECH Software\PICC-18\9.80\include\pic18f2520.h"
   837  0000                     FSR0 equ 0FE9h ;# 
   838                           # 2485 "C:\Program Files\HI-TECH Software\PICC-18\9.80\include\pic18f2520.h"
   839  0000                     FSR0L equ 0FE9h ;# 
   840                           # 2497 "C:\Program Files\HI-TECH Software\PICC-18\9.80\include\pic18f2520.h"
   841  0000                     FSR0H equ 0FEAh ;# 
   842                           # 2509 "C:\Program Files\HI-TECH Software\PICC-18\9.80\include\pic18f2520.h"
   843  0000                     PLUSW0 equ 0FEBh ;# 
   844                           # 2521 "C:\Program Files\HI-TECH Software\PICC-18\9.80\include\pic18f2520.h"
   845  0000                     PREINC0 equ 0FECh ;# 
   846                           # 2533 "C:\Program Files\HI-TECH Software\PICC-18\9.80\include\pic18f2520.h"
   847  0000                     POSTDEC0 equ 0FEDh ;# 
   848                           # 2545 "C:\Program Files\HI-TECH Software\PICC-18\9.80\include\pic18f2520.h"
   849  0000                     POSTINC0 equ 0FEEh ;# 
   850                           # 2557 "C:\Program Files\HI-TECH Software\PICC-18\9.80\include\pic18f2520.h"
   851  0000                     INDF0 equ 0FEFh ;# 
   852                           # 2569 "C:\Program Files\HI-TECH Software\PICC-18\9.80\include\pic18f2520.h"
   853  0000                     INTCON3 equ 0FF0h ;# 
   854                           # 2598 "C:\Program Files\HI-TECH Software\PICC-18\9.80\include\pic18f2520.h"
   855  0000                     INTCON2 equ 0FF1h ;# 
   856                           # 2625 "C:\Program Files\HI-TECH Software\PICC-18\9.80\include\pic18f2520.h"
   857  0000                     INTCON equ 0FF2h ;# 
   858                           # 2689 "C:\Program Files\HI-TECH Software\PICC-18\9.80\include\pic18f2520.h"
   859  0000                     PROD equ 0FF3h ;# 
   860                           # 2701 "C:\Program Files\HI-TECH Software\PICC-18\9.80\include\pic18f2520.h"
   861  0000                     PRODL equ 0FF3h ;# 
   862                           # 2713 "C:\Program Files\HI-TECH Software\PICC-18\9.80\include\pic18f2520.h"
   863  0000                     PRODH equ 0FF4h ;# 
   864                           # 2725 "C:\Program Files\HI-TECH Software\PICC-18\9.80\include\pic18f2520.h"
   865  0000                     TABLAT equ 0FF5h ;# 
   866                           # 2737 "C:\Program Files\HI-TECH Software\PICC-18\9.80\include\pic18f2520.h"
   867  0000                     TBLPTR equ 0FF6h ;# 
   868                           # 2750 "C:\Program Files\HI-TECH Software\PICC-18\9.80\include\pic18f2520.h"
   869  0000                     TBLPTRL equ 0FF6h ;# 
   870                           # 2762 "C:\Program Files\HI-TECH Software\PICC-18\9.80\include\pic18f2520.h"
   871  0000                     TBLPTRH equ 0FF7h ;# 
   872                           # 2774 "C:\Program Files\HI-TECH Software\PICC-18\9.80\include\pic18f2520.h"
   873  0000                     TBLPTRU equ 0FF8h ;# 
   874                           # 2787 "C:\Program Files\HI-TECH Software\PICC-18\9.80\include\pic18f2520.h"
   875  0000                     PCLAT equ 0FF9h ;# 
   876                           # 2792 "C:\Program Files\HI-TECH Software\PICC-18\9.80\include\pic18f2520.h"
   877  0000                     PC equ 0FF9h ;# 
   878                           # 2810 "C:\Program Files\HI-TECH Software\PICC-18\9.80\include\pic18f2520.h"
   879  0000                     PCL equ 0FF9h ;# 
   880                           # 2822 "C:\Program Files\HI-TECH Software\PICC-18\9.80\include\pic18f2520.h"
   881  0000                     PCLATH equ 0FFAh ;# 
   882                           # 2834 "C:\Program Files\HI-TECH Software\PICC-18\9.80\include\pic18f2520.h"
   883  0000                     PCLATU equ 0FFBh ;# 
   884                           # 2846 "C:\Program Files\HI-TECH Software\PICC-18\9.80\include\pic18f2520.h"
   885  0000                     STKPTR equ 0FFCh ;# 
   886                           # 2870 "C:\Program Files\HI-TECH Software\PICC-18\9.80\include\pic18f2520.h"
   887  0000                     TOS equ 0FFDh ;# 
   888                           # 2882 "C:\Program Files\HI-TECH Software\PICC-18\9.80\include\pic18f2520.h"
   889  0000                     TOSL equ 0FFDh ;# 
   890                           # 2894 "C:\Program Files\HI-TECH Software\PICC-18\9.80\include\pic18f2520.h"
   891  0000                     TOSH equ 0FFEh ;# 
   892                           # 2906 "C:\Program Files\HI-TECH Software\PICC-18\9.80\include\pic18f2520.h"
   893  0000                     TOSU equ 0FFFh ;# 
   894                           	FNCALL	_main,_init
   895                           	FNCALL	_main,_getPowerLine
   896                           	FNCALL	_main,_getDc
   897                           	FNCALL	_main,_getBat
   898                           	FNCALL	_main,_isPressedDs1990
   899                           	FNCALL	_main,_writeReadDs1990
   900                           	FNCALL	_getPowerLine,_adc
   901                           	FNCALL	_init,_setRX
   902                           	FNCALL	_getBat,_adc
   903                           	FNCALL	_getDc,_adc
   904                           	FNCALL	_writeReadDs1990,_outByteWire
   905                           	FNCALL	_writeReadDs1990,_readByteWire
   906                           	FNCALL	_writeReadDs1990,_getCRC8
   907                           	FNCALL	_isPressedDs1990,_resetWire
   908                           	FNROOT	_main
   909                           	FNCALL	_uart,_setTX
   910                           	FNCALL	_uart,i2_setRX
   911                           	FNCALL	intlevel2,_uart
   912                           	global	intlevel2
   913                           	FNROOT	intlevel2
   914                           	global	_CRCTAB
   915                           psect	mediumconst,class=MEDIUMCONST,space=0,reloc=2
   916                           global __pmediumconst
   917  007EFE                     __pmediumconst:
   918                           	file	"ds1990.h"
   919                           	line	20
   920  007EFE                     _CRCTAB:
   921  007EFE  00                 	db	low(0)
   922  007EFF  5E                 	db	low(05Eh)
   923  007F00  BC                 	db	low(0BCh)
   924  007F01  E2                 	db	low(0E2h)
   925  007F02  61                 	db	low(061h)
   926  007F03  3F                 	db	low(03Fh)
   927  007F04  DD                 	db	low(0DDh)
   928  007F05  83                 	db	low(083h)
   929  007F06  C2                 	db	low(0C2h)
   930  007F07  9C                 	db	low(09Ch)
   931  007F08  7E                 	db	low(07Eh)
   932  007F09  20                 	db	low(020h)
   933  007F0A  A3                 	db	low(0A3h)
   934  007F0B  FD                 	db	low(0FDh)
   935  007F0C  1F                 	db	low(01Fh)
   936  007F0D  41                 	db	low(041h)
   937  007F0E  9D                 	db	low(09Dh)
   938  007F0F  C3                 	db	low(0C3h)
   939  007F10  21                 	db	low(021h)
   940  007F11  7F                 	db	low(07Fh)
   941  007F12  FC                 	db	low(0FCh)
   942  007F13  A2                 	db	low(0A2h)
   943  007F14  40                 	db	low(040h)
   944  007F15  1E                 	db	low(01Eh)
   945  007F16  5F                 	db	low(05Fh)
   946  007F17  01                 	db	low(01h)
   947  007F18  E3                 	db	low(0E3h)
   948  007F19  BD                 	db	low(0BDh)
   949  007F1A  3E                 	db	low(03Eh)
   950  007F1B  60                 	db	low(060h)
   951  007F1C  82                 	db	low(082h)
   952  007F1D  DC                 	db	low(0DCh)
   953  007F1E  23                 	db	low(023h)
   954  007F1F  7D                 	db	low(07Dh)
   955  007F20  9F                 	db	low(09Fh)
   956  007F21  C1                 	db	low(0C1h)
   957  007F22  42                 	db	low(042h)
   958  007F23  1C                 	db	low(01Ch)
   959  007F24  FE                 	db	low(0FEh)
   960  007F25  A0                 	db	low(0A0h)
   961  007F26  E1                 	db	low(0E1h)
   962  007F27  BF                 	db	low(0BFh)
   963  007F28  5D                 	db	low(05Dh)
   964  007F29  03                 	db	low(03h)
   965  007F2A  80                 	db	low(080h)
   966  007F2B  DE                 	db	low(0DEh)
   967  007F2C  3C                 	db	low(03Ch)
   968  007F2D  62                 	db	low(062h)
   969  007F2E  BE                 	db	low(0BEh)
   970  007F2F  E0                 	db	low(0E0h)
   971  007F30  02                 	db	low(02h)
   972  007F31  5C                 	db	low(05Ch)
   973  007F32  DF                 	db	low(0DFh)
   974  007F33  81                 	db	low(081h)
   975  007F34  63                 	db	low(063h)
   976  007F35  3D                 	db	low(03Dh)
   977  007F36  7C                 	db	low(07Ch)
   978  007F37  22                 	db	low(022h)
   979  007F38  C0                 	db	low(0C0h)
   980  007F39  9E                 	db	low(09Eh)
   981  007F3A  1D                 	db	low(01Dh)
   982  007F3B  43                 	db	low(043h)
   983  007F3C  A1                 	db	low(0A1h)
   984  007F3D  FF                 	db	low(0FFh)
   985  007F3E  46                 	db	low(046h)
   986  007F3F  18                 	db	low(018h)
   987  007F40  FA                 	db	low(0FAh)
   988  007F41  A4                 	db	low(0A4h)
   989  007F42  27                 	db	low(027h)
   990  007F43  79                 	db	low(079h)
   991  007F44  9B                 	db	low(09Bh)
   992  007F45  C5                 	db	low(0C5h)
   993  007F46  84                 	db	low(084h)
   994  007F47  DA                 	db	low(0DAh)
   995  007F48  38                 	db	low(038h)
   996  007F49  66                 	db	low(066h)
   997  007F4A  E5                 	db	low(0E5h)
   998  007F4B  BB                 	db	low(0BBh)
   999  007F4C  59                 	db	low(059h)
  1000  007F4D  07                 	db	low(07h)
  1001  007F4E  DB                 	db	low(0DBh)
  1002  007F4F  85                 	db	low(085h)
  1003  007F50  67                 	db	low(067h)
  1004  007F51  39                 	db	low(039h)
  1005  007F52  BA                 	db	low(0BAh)
  1006  007F53  E4                 	db	low(0E4h)
  1007  007F54  06                 	db	low(06h)
  1008  007F55  58                 	db	low(058h)
  1009  007F56  19                 	db	low(019h)
  1010  007F57  47                 	db	low(047h)
  1011  007F58  A5                 	db	low(0A5h)
  1012  007F59  FB                 	db	low(0FBh)
  1013  007F5A  78                 	db	low(078h)
  1014  007F5B  26                 	db	low(026h)
  1015  007F5C  C4                 	db	low(0C4h)
  1016  007F5D  9A                 	db	low(09Ah)
  1017  007F5E  65                 	db	low(065h)
  1018  007F5F  3B                 	db	low(03Bh)
  1019  007F60  D9                 	db	low(0D9h)
  1020  007F61  87                 	db	low(087h)
  1021  007F62  04                 	db	low(04h)
  1022  007F63  5A                 	db	low(05Ah)
  1023  007F64  B8                 	db	low(0B8h)
  1024  007F65  E6                 	db	low(0E6h)
  1025  007F66  A7                 	db	low(0A7h)
  1026  007F67  F9                 	db	low(0F9h)
  1027  007F68  1B                 	db	low(01Bh)
  1028  007F69  45                 	db	low(045h)
  1029  007F6A  C6                 	db	low(0C6h)
  1030  007F6B  98                 	db	low(098h)
  1031  007F6C  7A                 	db	low(07Ah)
  1032  007F6D  24                 	db	low(024h)
  1033  007F6E  F8                 	db	low(0F8h)
  1034  007F6F  A6                 	db	low(0A6h)
  1035  007F70  44                 	db	low(044h)
  1036  007F71  1A                 	db	low(01Ah)
  1037  007F72  99                 	db	low(099h)
  1038  007F73  C7                 	db	low(0C7h)
  1039  007F74  25                 	db	low(025h)
  1040  007F75  7B                 	db	low(07Bh)
  1041  007F76  3A                 	db	low(03Ah)
  1042  007F77  64                 	db	low(064h)
  1043  007F78  86                 	db	low(086h)
  1044  007F79  D8                 	db	low(0D8h)
  1045  007F7A  5B                 	db	low(05Bh)
  1046  007F7B  05                 	db	low(05h)
  1047  007F7C  E7                 	db	low(0E7h)
  1048  007F7D  B9                 	db	low(0B9h)
  1049  007F7E  8C                 	db	low(08Ch)
  1050  007F7F  D2                 	db	low(0D2h)
  1051  007F80  30                 	db	low(030h)
  1052  007F81  6E                 	db	low(06Eh)
  1053  007F82  ED                 	db	low(0EDh)
  1054  007F83  B3                 	db	low(0B3h)
  1055  007F84  51                 	db	low(051h)
  1056  007F85  0F                 	db	low(0Fh)
  1057  007F86  4E                 	db	low(04Eh)
  1058  007F87  10                 	db	low(010h)
  1059  007F88  F2                 	db	low(0F2h)
  1060  007F89  AC                 	db	low(0ACh)
  1061  007F8A  2F                 	db	low(02Fh)
  1062  007F8B  71                 	db	low(071h)
  1063  007F8C  93                 	db	low(093h)
  1064  007F8D  CD                 	db	low(0CDh)
  1065  007F8E  11                 	db	low(011h)
  1066  007F8F  4F                 	db	low(04Fh)
  1067  007F90  AD                 	db	low(0ADh)
  1068  007F91  F3                 	db	low(0F3h)
  1069  007F92  70                 	db	low(070h)
  1070  007F93  2E                 	db	low(02Eh)
  1071  007F94  CC                 	db	low(0CCh)
  1072  007F95  92                 	db	low(092h)
  1073  007F96  D3                 	db	low(0D3h)
  1074  007F97  8D                 	db	low(08Dh)
  1075  007F98  6F                 	db	low(06Fh)
  1076  007F99  31                 	db	low(031h)
  1077  007F9A  B2                 	db	low(0B2h)
  1078  007F9B  EC                 	db	low(0ECh)
  1079  007F9C  0E                 	db	low(0Eh)
  1080  007F9D  50                 	db	low(050h)
  1081  007F9E  AF                 	db	low(0AFh)
  1082  007F9F  F1                 	db	low(0F1h)
  1083  007FA0  13                 	db	low(013h)
  1084  007FA1  4D                 	db	low(04Dh)
  1085  007FA2  CE                 	db	low(0CEh)
  1086  007FA3  90                 	db	low(090h)
  1087  007FA4  72                 	db	low(072h)
  1088  007FA5  2C                 	db	low(02Ch)
  1089  007FA6  6D                 	db	low(06Dh)
  1090  007FA7  33                 	db	low(033h)
  1091  007FA8  D1                 	db	low(0D1h)
  1092  007FA9  8F                 	db	low(08Fh)
  1093  007FAA  0C                 	db	low(0Ch)
  1094  007FAB  52                 	db	low(052h)
  1095  007FAC  B0                 	db	low(0B0h)
  1096  007FAD  EE                 	db	low(0EEh)
  1097  007FAE  32                 	db	low(032h)
  1098  007FAF  6C                 	db	low(06Ch)
  1099  007FB0  8E                 	db	low(08Eh)
  1100  007FB1  D0                 	db	low(0D0h)
  1101  007FB2  53                 	db	low(053h)
  1102  007FB3  0D                 	db	low(0Dh)
  1103  007FB4  EF                 	db	low(0EFh)
  1104  007FB5  B1                 	db	low(0B1h)
  1105  007FB6  F0                 	db	low(0F0h)
  1106  007FB7  AE                 	db	low(0AEh)
  1107  007FB8  4C                 	db	low(04Ch)
  1108  007FB9  12                 	db	low(012h)
  1109  007FBA  91                 	db	low(091h)
  1110  007FBB  CF                 	db	low(0CFh)
  1111  007FBC  2D                 	db	low(02Dh)
  1112  007FBD  73                 	db	low(073h)
  1113  007FBE  CA                 	db	low(0CAh)
  1114  007FBF  94                 	db	low(094h)
  1115  007FC0  76                 	db	low(076h)
  1116  007FC1  28                 	db	low(028h)
  1117  007FC2  AB                 	db	low(0ABh)
  1118  007FC3  F5                 	db	low(0F5h)
  1119  007FC4  17                 	db	low(017h)
  1120  007FC5  49                 	db	low(049h)
  1121  007FC6  08                 	db	low(08h)
  1122  007FC7  56                 	db	low(056h)
  1123  007FC8  B4                 	db	low(0B4h)
  1124  007FC9  EA                 	db	low(0EAh)
  1125  007FCA  69                 	db	low(069h)
  1126  007FCB  37                 	db	low(037h)
  1127  007FCC  D5                 	db	low(0D5h)
  1128  007FCD  8B                 	db	low(08Bh)
  1129  007FCE  57                 	db	low(057h)
  1130  007FCF  09                 	db	low(09h)
  1131  007FD0  EB                 	db	low(0EBh)
  1132  007FD1  B5                 	db	low(0B5h)
  1133  007FD2  36                 	db	low(036h)
  1134  007FD3  68                 	db	low(068h)
  1135  007FD4  8A                 	db	low(08Ah)
  1136  007FD5  D4                 	db	low(0D4h)
  1137  007FD6  95                 	db	low(095h)
  1138  007FD7  CB                 	db	low(0CBh)
  1139  007FD8  29                 	db	low(029h)
  1140  007FD9  77                 	db	low(077h)
  1141  007FDA  F4                 	db	low(0F4h)
  1142  007FDB  AA                 	db	low(0AAh)
  1143  007FDC  48                 	db	low(048h)
  1144  007FDD  16                 	db	low(016h)
  1145  007FDE  E9                 	db	low(0E9h)
  1146  007FDF  B7                 	db	low(0B7h)
  1147  007FE0  55                 	db	low(055h)
  1148  007FE1  0B                 	db	low(0Bh)
  1149  007FE2  88                 	db	low(088h)
  1150  007FE3  D6                 	db	low(0D6h)
  1151  007FE4  34                 	db	low(034h)
  1152  007FE5  6A                 	db	low(06Ah)
  1153  007FE6  2B                 	db	low(02Bh)
  1154  007FE7  75                 	db	low(075h)
  1155  007FE8  97                 	db	low(097h)
  1156  007FE9  C9                 	db	low(0C9h)
  1157  007FEA  4A                 	db	low(04Ah)
  1158  007FEB  14                 	db	low(014h)
  1159  007FEC  F6                 	db	low(0F6h)
  1160  007FED  A8                 	db	low(0A8h)
  1161  007FEE  74                 	db	low(074h)
  1162  007FEF  2A                 	db	low(02Ah)
  1163  007FF0  C8                 	db	low(0C8h)
  1164  007FF1  96                 	db	low(096h)
  1165  007FF2  15                 	db	low(015h)
  1166  007FF3  4B                 	db	low(04Bh)
  1167  007FF4  A9                 	db	low(0A9h)
  1168  007FF5  F7                 	db	low(0F7h)
  1169  007FF6  B6                 	db	low(0B6h)
  1170  007FF7  E8                 	db	low(0E8h)
  1171  007FF8  0A                 	db	low(0Ah)
  1172  007FF9  54                 	db	low(054h)
  1173  007FFA  D7                 	db	low(0D7h)
  1174  007FFB  89                 	db	low(089h)
  1175  007FFC  6B                 	db	low(06Bh)
  1176  007FFD  35                 	db	low(035h)
  1177                           	global	_CRCTAB
  1178                           	global	_state
  1179                           	global	_akb
  1180                           	global	_dmcuWoR
  1181                           	global	_mSec
  1182                           	global	_relay
  1183                           	global	_sec
  1184                           	global	_shunt
  1185                           	global	_tmValue
  1186                           	global	_TMR0
  1187  0000                     _TMR0	set	0xFD6
  1188                           	global	_ADCON0
  1189  0000                     _ADCON0	set	0xFC2
  1190                           	global	_ADCON1
  1191  0000                     _ADCON1	set	0xFC1
  1192                           	global	_ADCON2
  1193  0000                     _ADCON2	set	0xFC0
  1194                           	global	_ADRESH
  1195  0000                     _ADRESH	set	0xFC4
  1196                           	global	_ADRESL
  1197  0000                     _ADRESL	set	0xFC3
  1198                           	global	_CMCON
  1199  0000                     _CMCON	set	0xFB4
  1200                           	global	_FSR1H
  1201  0000                     _FSR1H	set	0xFE2
  1202                           	global	_FSR2H
  1203  0000                     _FSR2H	set	0xFDA
  1204                           	global	_INTCON
  1205  0000                     _INTCON	set	0xFF2
  1206                           	global	_INTCON2
  1207  0000                     _INTCON2	set	0xFF1
  1208                           	global	_INTCON3
  1209  0000                     _INTCON3	set	0xFF0
  1210                           	global	_LATA
  1211  0000                     _LATA	set	0xF89
  1212                           	global	_LATB
  1213  0000                     _LATB	set	0xF8A
  1214                           	global	_LATC
  1215  0000                     _LATC	set	0xF8B
  1216                           	global	_PIE1
  1217  0000                     _PIE1	set	0xF9D
  1218                           	global	_PIE1bits
  1219  0000                     _PIE1bits	set	0xF9D
  1220                           	global	_PORTA
  1221  0000                     _PORTA	set	0xF80
  1222                           	global	_PORTAbits
  1223  0000                     _PORTAbits	set	0xF80
  1224                           	global	_PORTB
  1225  0000                     _PORTB	set	0xF81
  1226                           	global	_PORTBbits
  1227  0000                     _PORTBbits	set	0xF81
  1228                           	global	_PORTC
  1229  0000                     _PORTC	set	0xF82
  1230                           	global	_PORTCbits
  1231  0000                     _PORTCbits	set	0xF82
  1232                           	global	_RCREG
  1233  0000                     _RCREG	set	0xFAE
  1234                           	global	_RCSTA
  1235  0000                     _RCSTA	set	0xFAB
  1236                           	global	_RCSTA1bits
  1237  0000                     _RCSTA1bits	set	0xFAB
  1238                           	global	_RCSTAbits
  1239  0000                     _RCSTAbits	set	0xFAB
  1240                           	global	_SPBRG
  1241  0000                     _SPBRG	set	0xFAF
  1242                           	global	_T0CON
  1243  0000                     _T0CON	set	0xFD5
  1244                           	global	_T1CON
  1245  0000                     _T1CON	set	0xFCD
  1246                           	global	_T2CON
  1247  0000                     _T2CON	set	0xFCA
  1248                           	global	_TRISA
  1249  0000                     _TRISA	set	0xF92
  1250                           	global	_TRISB
  1251  0000                     _TRISB	set	0xF93
  1252                           	global	_TRISBbits
  1253  0000                     _TRISBbits	set	0xF93
  1254                           	global	_TRISC
  1255  0000                     _TRISC	set	0xF94
  1256                           	global	_TXREG
  1257  0000                     _TXREG	set	0xFAD
  1258                           	global	_TXSTA
  1259  0000                     _TXSTA	set	0xFAC
  1260                           	global	_TXSTAbits
  1261  0000                     _TXSTAbits	set	0xFAC
  1262                           	global	_WREG
  1263  0000                     _WREG	set	0xFE8
  1264                           	global	_GIE
  1265  0000                     _GIE	set	0x7F97
  1266                           	global	_GO
  1267  0000                     _GO	set	0x7E11
  1268                           	global	_RCIF
  1269  0000                     _RCIF	set	0x7CF5
  1270                           	global	_TMR0IE
  1271  0000                     _TMR0IE	set	0x7F95
  1272                           	global	_TMR0IF
  1273  0000                     _TMR0IF	set	0x7F92
  1274                           	global	_TXIF
  1275  0000                     _TXIF	set	0x7CF4
  1276                           	global	_indexOutByte
  1277                           psect	nvCOMRAM,class=COMRAM,space=1
  1278                           global __pnvCOMRAM
  1279  000033                     __pnvCOMRAM:
  1280                           	global	_indexOutByte
  1281  000033                     _indexOutByte:
  1282  000033                            ds      1
  1283                           ; #config settings
  1284                           global __CFG_IESO$OFF
  1285  0000                     __CFG_IESO$OFF equ 0x0
  1286                           global __CFG_OSC$HS
  1287  0000                     __CFG_OSC$HS equ 0x0
  1288                           global __CFG_FCMEN$OFF
  1289  0000                     __CFG_FCMEN$OFF equ 0x0
  1290                           global __CFG_BOREN$SBORDIS
  1291  0000                     __CFG_BOREN$SBORDIS equ 0x0
  1292                           global __CFG_BORV$3
  1293  0000                     __CFG_BORV$3 equ 0x0
  1294                           global __CFG_PWRT$OFF
  1295  0000                     __CFG_PWRT$OFF equ 0x0
  1296                           global __CFG_WDTPS$128
  1297  0000                     __CFG_WDTPS$128 equ 0x0
  1298                           global __CFG_WDT$OFF
  1299  0000                     __CFG_WDT$OFF equ 0x0
  1300                           global __CFG_CCP2MX$PORTC
  1301  0000                     __CFG_CCP2MX$PORTC equ 0x0
  1302                           global __CFG_PBADEN$ON
  1303  0000                     __CFG_PBADEN$ON equ 0x0
  1304                           global __CFG_LPT1OSC$OFF
  1305  0000                     __CFG_LPT1OSC$OFF equ 0x0
  1306                           global __CFG_MCLRE$ON
  1307  0000                     __CFG_MCLRE$ON equ 0x0
  1308                           global __CFG_STVREN$ON
  1309  0000                     __CFG_STVREN$ON equ 0x0
  1310                           global __CFG_XINST$OFF
  1311  0000                     __CFG_XINST$OFF equ 0x0
  1312                           global __CFG_LVP$OFF
  1313  0000                     __CFG_LVP$OFF equ 0x0
  1314                           global __CFG_CP0$OFF
  1315  0000                     __CFG_CP0$OFF equ 0x0
  1316                           global __CFG_CP1$OFF
  1317  0000                     __CFG_CP1$OFF equ 0x0
  1318                           global __CFG_CP2$OFF
  1319  0000                     __CFG_CP2$OFF equ 0x0
  1320                           global __CFG_CP3$OFF
  1321  0000                     __CFG_CP3$OFF equ 0x0
  1322                           global __CFG_CPD$OFF
  1323  0000                     __CFG_CPD$OFF equ 0x0
  1324                           global __CFG_CPB$OFF
  1325  0000                     __CFG_CPB$OFF equ 0x0
  1326                           global __CFG_WRT0$OFF
  1327  0000                     __CFG_WRT0$OFF equ 0x0
  1328                           global __CFG_WRT1$OFF
  1329  0000                     __CFG_WRT1$OFF equ 0x0
  1330                           global __CFG_WRT2$OFF
  1331  0000                     __CFG_WRT2$OFF equ 0x0
  1332                           global __CFG_WRT3$OFF
  1333  0000                     __CFG_WRT3$OFF equ 0x0
  1334                           global __CFG_WRTB$OFF
  1335  0000                     __CFG_WRTB$OFF equ 0x0
  1336                           global __CFG_WRTC$OFF
  1337  0000                     __CFG_WRTC$OFF equ 0x0
  1338                           global __CFG_WRTD$OFF
  1339  0000                     __CFG_WRTD$OFF equ 0x0
  1340                           global __CFG_EBTR0$OFF
  1341  0000                     __CFG_EBTR0$OFF equ 0x0
  1342                           global __CFG_EBTR1$OFF
  1343  0000                     __CFG_EBTR1$OFF equ 0x0
  1344                           global __CFG_EBTR2$OFF
  1345  0000                     __CFG_EBTR2$OFF equ 0x0
  1346                           global __CFG_EBTR3$OFF
  1347  0000                     __CFG_EBTR3$OFF equ 0x0
  1348                           global __CFG_EBTRB$OFF
  1349  0000                     __CFG_EBTRB$OFF equ 0x0
  1350                           	file	"C:\temp\s2m0."
  1351                           	line	#
  1352                           psect	cinit,class=CODE,delta=1,reloc=2
  1353                           global __pcinit
  1354  0007AC                     __pcinit:
  1355                           global start_initialization
  1356  0007AC                     start_initialization:
  1357                           
  1358                           psect	bssCOMRAM,class=COMRAM,space=1
  1359                           global __pbssCOMRAM
  1360  000023                     __pbssCOMRAM:
  1361                           	global	_state
  1362  000023                     _state:
  1363  000023                            ds      2
  1364                           	global	_akb
  1365                           	global	_akb
  1366  000025                     _akb:
  1367  000025                            ds      1
  1368                           	global	_dmcuWoR
  1369  000026                     _dmcuWoR:
  1370  000026                            ds      1
  1371                           	global	_mSec
  1372  000027                     _mSec:
  1373  000027                            ds      1
  1374                           	global	_relay
  1375  000028                     _relay:
  1376  000028                            ds      1
  1377                           	global	_sec
  1378  000029                     _sec:
  1379  000029                            ds      1
  1380                           	global	_shunt
  1381  00002A                     _shunt:
  1382  00002A                            ds      1
  1383                           	global	_tmValue
  1384  00002B                     _tmValue:
  1385  00002B                            ds      8
  1386                           psect	cinit
  1387                           ; Clear objects allocated to COMRAM (16 bytes)
  1388                           	global __pbssCOMRAM
  1389  0007AC  EE00  F023         lfsr	0,__pbssCOMRAM
  1390  0007B0  0E10               movlw	16
  1391  0007B2                     clear_0:
  1392  0007B2  6AEE               clrf	postinc0,c
  1393  0007B4  06E8               decf	wreg
  1394  0007B6  E1FD               bnz	clear_0
  1395                           psect cinit,class=CODE,delta=1
  1396                           global end_of_initialization
  1397                           
  1398                           ;End of C runtime variable initialization code
  1399                           
  1400  0007B8                     end_of_initialization:
  1401                           	GLOBAL	__Lmediumconst
  1402  0007B8  0E00               	movlw	low highword(__Lmediumconst)
  1403  0007BA  6EF8               	movwf	tblptru
  1404  0007BC  0100               movlb 0
  1405  0007BE  EF11  F002         goto _main	;jump to C main() function
  1406                           psect	cstackCOMRAM,class=COMRAM,space=1
  1407                           global __pcstackCOMRAM
  1408  000001                     __pcstackCOMRAM:
  1409                           	global	?_setRX
  1410  000001                     ?_setRX:	; 0 bytes @ 0x0
  1411                           	global	?_resetWire
  1412  000001                     ?_resetWire:	; 0 bytes @ 0x0
  1413                           	global	?_init
  1414  000001                     ?_init:	; 0 bytes @ 0x0
  1415                           	global	?_setTX
  1416  000001                     ?_setTX:	; 0 bytes @ 0x0
  1417                           	global	??_setTX
  1418  000001                     ??_setTX:	; 0 bytes @ 0x0
  1419                           	global	?_uart
  1420  000001                     ?_uart:	; 0 bytes @ 0x0
  1421                           	global	??_uart
  1422  000001                     ??_uart:	; 0 bytes @ 0x0
  1423                           	global	?i2_setRX
  1424  000001                     ?i2_setRX:	; 0 bytes @ 0x0
  1425                           	global	??i2_setRX
  1426  000001                     ??i2_setRX:	; 0 bytes @ 0x0
  1427                           	global	?_getPowerLine
  1428  000001                     ?_getPowerLine:	; 1 bytes @ 0x0
  1429                           	global	?_getDc
  1430  000001                     ?_getDc:	; 1 bytes @ 0x0
  1431                           	global	?_getBat
  1432  000001                     ?_getBat:	; 1 bytes @ 0x0
  1433                           	global	?_isPressedDs1990
  1434  000001                     ?_isPressedDs1990:	; 1 bytes @ 0x0
  1435                           	global	?_writeReadDs1990
  1436  000001                     ?_writeReadDs1990:	; 1 bytes @ 0x0
  1437                           	global	?_readByteWire
  1438  000001                     ?_readByteWire:	; 1 bytes @ 0x0
  1439  000001                     	ds   15
  1440                           	global	uart@indexInputData
  1441  000010                     uart@indexInputData:	; 1 bytes @ 0xF
  1442  000010                     	ds   1
  1443                           	global	uart@nData
  1444  000011                     uart@nData:	; 1 bytes @ 0x10
  1445  000011                     	ds   1
  1446                           	global	??_setRX
  1447  000012                     ??_setRX:	; 0 bytes @ 0x11
  1448                           	global	??_resetWire
  1449  000012                     ??_resetWire:	; 0 bytes @ 0x11
  1450                           	global	?_outByteWire
  1451  000012                     ?_outByteWire:	; 0 bytes @ 0x11
  1452                           	global	??_readByteWire
  1453  000012                     ??_readByteWire:	; 0 bytes @ 0x11
  1454                           	global	??_init
  1455  000012                     ??_init:	; 0 bytes @ 0x11
  1456                           	global	?_getCRC8
  1457  000012                     ?_getCRC8:	; 1 bytes @ 0x11
  1458                           	global	?_adc
  1459  000012                     ?_adc:	; 2 bytes @ 0x11
  1460                           	global	adc@an
  1461  000012                     adc@an:	; 1 bytes @ 0x11
  1462                           	global	outByteWire@data
  1463  000012                     outByteWire@data:	; 1 bytes @ 0x11
  1464                           	global	getCRC8@data
  1465  000012                     getCRC8@data:	; 2 bytes @ 0x11
  1466  000012                     	ds   1
  1467                           	global	??_isPressedDs1990
  1468  000013                     ??_isPressedDs1990:	; 0 bytes @ 0x12
  1469                           	global	??_outByteWire
  1470  000013                     ??_outByteWire:	; 0 bytes @ 0x12
  1471                           	global	readByteWire@t
  1472  000013                     readByteWire@t:	; 1 bytes @ 0x12
  1473                           	global	outByteWire@i
  1474  000013                     outByteWire@i:	; 2 bytes @ 0x12
  1475  000013                     	ds   1
  1476                           	global	??_adc
  1477  000014                     ??_adc:	; 0 bytes @ 0x13
  1478                           	global	??_getCRC8
  1479  000014                     ??_getCRC8:	; 0 bytes @ 0x13
  1480                           	global	readByteWire@i
  1481  000014                     readByteWire@i:	; 2 bytes @ 0x13
  1482  000014                     	ds   1
  1483                           	global	getCRC8@CRC
  1484  000015                     getCRC8@CRC:	; 1 bytes @ 0x14
  1485  000015                     	ds   1
  1486                           	global	??_getPowerLine
  1487  000016                     ??_getPowerLine:	; 0 bytes @ 0x15
  1488                           	global	??_getDc
  1489  000016                     ??_getDc:	; 0 bytes @ 0x15
  1490                           	global	??_getBat
  1491  000016                     ??_getBat:	; 0 bytes @ 0x15
  1492                           	global	getCRC8@i
  1493  000016                     getCRC8@i:	; 1 bytes @ 0x15
  1494  000016                     	ds   1
  1495                           	global	??_writeReadDs1990
  1496  000017                     ??_writeReadDs1990:	; 0 bytes @ 0x16
  1497  000017                     	ds   1
  1498                           	global	_getPowerLine$632
  1499  000018                     _getPowerLine$632:	; 2 bytes @ 0x17
  1500                           	global	writeReadDs1990@i
  1501  000018                     writeReadDs1990@i:	; 2 bytes @ 0x17
  1502  000018                     	ds   2
  1503                           	global	getPowerLine@result
  1504  00001A                     getPowerLine@result:	; 1 bytes @ 0x19
  1505  00001A                     	ds   1
  1506                           	global	getPowerLine@i
  1507  00001B                     getPowerLine@i:	; 2 bytes @ 0x1A
  1508  00001B                     	ds   2
  1509                           	global	?_main
  1510  00001D                     ?_main:	; 2 bytes @ 0x1C
  1511                           	global	main@argc
  1512  00001D                     main@argc:	; 2 bytes @ 0x1C
  1513  00001D                     	ds   2
  1514                           	global	main@argv
  1515  00001F                     main@argv:	; 3 bytes @ 0x1E
  1516  00001F                     	ds   3
  1517                           	global	??_main
  1518  000022                     ??_main:	; 0 bytes @ 0x21
  1519  000022                     	ds   1
  1520                           ;!
  1521                           ;!Data Sizes:
  1522                           ;!    Strings     0
  1523                           ;!    Constant    256
  1524                           ;!    Data        0
  1525                           ;!    BSS         16
  1526                           ;!    Persistent  1
  1527                           ;!    Stack       0
  1528                           ;!
  1529                           ;!Auto Spaces:
  1530                           ;!    Space          Size  Autos    Used
  1531                           ;!    COMRAM          127     34      51
  1532                           ;!    BANK0           128      0       0
  1533                           ;!    BANK1           256      0       0
  1534                           ;!    BANK2           256      0       0
  1535                           ;!    BANK3           256      0       0
  1536                           ;!    BANK4           256      0       0
  1537                           ;!    BANK5           256      0       0
  1538                           
  1539                           ;!
  1540                           ;!Pointer List with Targets:
  1541                           ;!
  1542                           ;!    ?_adc	unsigned short  size(2) Largest target is 0
  1543                           ;!
  1544                           ;!    getCRC8@data	PTR unsigned char  size(2) Largest target is 8
  1545                           ;!		 -> tmValue(COMRAM[8]), 
  1546                           ;!
  1547                           
  1548                           
  1549                           ;!
  1550                           ;!Critical Paths under _main in COMRAM
  1551                           ;!
  1552                           ;!    _main->_getPowerLine
  1553                           ;!    _getPowerLine->_adc
  1554                           ;!    _getBat->_adc
  1555                           ;!    _getDc->_adc
  1556                           ;!    _writeReadDs1990->_getCRC8
  1557                           ;!    _isPressedDs1990->_resetWire
  1558                           ;!
  1559                           ;!Critical Paths under _uart in COMRAM
  1560                           ;!
  1561                           ;!    None.
  1562                           ;!
  1563                           ;!Critical Paths under _main in BANK0
  1564                           ;!
  1565                           ;!    None.
  1566                           ;!
  1567                           ;!Critical Paths under _uart in BANK0
  1568                           ;!
  1569                           ;!    None.
  1570                           ;!
  1571                           ;!Critical Paths under _main in BANK1
  1572                           ;!
  1573                           ;!    None.
  1574                           ;!
  1575                           ;!Critical Paths under _uart in BANK1
  1576                           ;!
  1577                           ;!    None.
  1578                           ;!
  1579                           ;!Critical Paths under _main in BANK2
  1580                           ;!
  1581                           ;!    None.
  1582                           ;!
  1583                           ;!Critical Paths under _uart in BANK2
  1584                           ;!
  1585                           ;!    None.
  1586                           ;!
  1587                           ;!Critical Paths under _main in BANK3
  1588                           ;!
  1589                           ;!    None.
  1590                           ;!
  1591                           ;!Critical Paths under _uart in BANK3
  1592                           ;!
  1593                           ;!    None.
  1594                           ;!
  1595                           ;!Critical Paths under _main in BANK4
  1596                           ;!
  1597                           ;!    None.
  1598                           ;!
  1599                           ;!Critical Paths under _uart in BANK4
  1600                           ;!
  1601                           ;!    None.
  1602                           ;!
  1603                           ;!Critical Paths under _main in BANK5
  1604                           ;!
  1605                           ;!    None.
  1606                           ;!
  1607                           ;!Critical Paths under _uart in BANK5
  1608                           ;!
  1609                           ;!    None.
  1610                           
  1611 ;;
  1612 ;;Main: autosize = 0, tempsize = 1, incstack = 0, save=0
  1613 ;;
  1614                           
  1615                           ;!
  1616                           ;!Call Graph Tables:
  1617                           ;!
  1618                           ;! ---------------------------------------------------------------------------------
  1619                           ;! (Depth) Function   	        Calls       Base Space   Used Autos Params    Refs
  1620                           ;! ---------------------------------------------------------------------------------
  1621                           ;! (0) _main                                                 6     1      5     390
  1622                           ;!                                             28 COMRAM     6     1      5
  1623                           ;!                               _init
  1624                           ;!                       _getPowerLine
  1625                           ;!                              _getDc
  1626                           ;!                             _getBat
  1627                           ;!                    _isPressedDs1990
  1628                           ;!                    _writeReadDs1990
  1629                           ;! ---------------------------------------------------------------------------------
  1630                           ;! (1) _getPowerLine                                         7     7      0     120
  1631                           ;!                                             21 COMRAM     7     7      0
  1632                           ;!                                _adc
  1633                           ;! ---------------------------------------------------------------------------------
  1634                           ;! (1) _init                                                 1     1      0       0
  1635                           ;!                                             17 COMRAM     1     1      0
  1636                           ;!                              _setRX
  1637                           ;! ---------------------------------------------------------------------------------
  1638                           ;! (2) _setRX                                                0     0      0       0
  1639                           ;! ---------------------------------------------------------------------------------
  1640                           ;! (1) _getBat                                               1     1      0      15
  1641                           ;!                                             21 COMRAM     1     1      0
  1642                           ;!                                _adc
  1643                           ;! ---------------------------------------------------------------------------------
  1644                           ;! (1) _getDc                                                1     1      0      15
  1645                           ;!                                             21 COMRAM     1     1      0
  1646                           ;!                                _adc
  1647                           ;! ---------------------------------------------------------------------------------
  1648                           ;! (1) _writeReadDs1990                                      3     3      0     240
  1649                           ;!                                             22 COMRAM     3     3      0
  1650                           ;!                        _outByteWire
  1651                           ;!                       _readByteWire
  1652                           ;!                            _getCRC8
  1653                           ;! ---------------------------------------------------------------------------------
  1654                           ;! (1) _isPressedDs1990                                      0     0      0       0
  1655                           ;!                          _resetWire
  1656                           ;! ---------------------------------------------------------------------------------
  1657                           ;! (2) _adc                                                  4     2      2      15
  1658                           ;!                                             17 COMRAM     4     2      2
  1659                           ;! ---------------------------------------------------------------------------------
  1660                           ;! (2) _resetWire                                            1     1      0       0
  1661                           ;!                                             17 COMRAM     1     1      0
  1662                           ;! ---------------------------------------------------------------------------------
  1663                           ;! (2) _getCRC8                                              5     3      2     105
  1664                           ;!                                             17 COMRAM     5     3      2
  1665                           ;! ---------------------------------------------------------------------------------
  1666                           ;! (2) _outByteWire                                          3     2      1      45
  1667                           ;!                                             17 COMRAM     3     2      1
  1668                           ;! ---------------------------------------------------------------------------------
  1669                           ;! (2) _readByteWire                                         4     4      0      45
  1670                           ;!                                             17 COMRAM     4     4      0
  1671                           ;! ---------------------------------------------------------------------------------
  1672                           ;! Estimated maximum stack depth 2
  1673                           ;! ---------------------------------------------------------------------------------
  1674                           ;! (Depth) Function   	        Calls       Base Space   Used Autos Params    Refs
  1675                           ;! ---------------------------------------------------------------------------------
  1676                           ;! (3) _uart                                                17    17      0     105
  1677                           ;!                                              0 COMRAM    17    17      0
  1678                           ;!                              _setTX
  1679                           ;!                            i2_setRX
  1680                           ;! ---------------------------------------------------------------------------------
  1681                           ;! (4) _setTX                                                0     0      0       0
  1682                           ;! ---------------------------------------------------------------------------------
  1683                           ;! (4) i2_setRX                                              0     0      0       0
  1684                           ;! ---------------------------------------------------------------------------------
  1685                           ;! Estimated maximum stack depth 4
  1686                           ;! ---------------------------------------------------------------------------------
  1687                           ;!
  1688                           ;! Call Graph Graphs:
  1689                           ;!
  1690                           ;! _main (ROOT)
  1691                           ;!   _init
  1692                           ;!     _setRX
  1693                           ;!   _getPowerLine
  1694                           ;!     _adc
  1695                           ;!   _getDc
  1696                           ;!     _adc
  1697                           ;!   _getBat
  1698                           ;!     _adc
  1699                           ;!   _isPressedDs1990
  1700                           ;!     _resetWire
  1701                           ;!   _writeReadDs1990
  1702                           ;!     _outByteWire
  1703                           ;!     _readByteWire
  1704                           ;!     _getCRC8
  1705                           ;!
  1706                           ;! _uart (ROOT)
  1707                           ;!   _setTX
  1708                           ;!   i2_setRX
  1709                           ;!
  1710                           
  1711                           ;! Address spaces:
  1712                           
  1713                           ;!Name               Size   Autos  Total    Cost      Usage
  1714                           ;!BIGRAM             5FF      0       0      17        0.0%
  1715                           ;!EEDATA             100      0       0       0        0.0%
  1716                           ;!BITBANK5           100      0       0      16        0.0%
  1717                           ;!BANK5              100      0       0      14        0.0%
  1718                           ;!BITBANK4           100      0       0      12        0.0%
  1719                           ;!BANK4              100      0       0      13        0.0%
  1720                           ;!BITBANK3           100      0       0      10        0.0%
  1721                           ;!BANK3              100      0       0      11        0.0%
  1722                           ;!BITBANK2           100      0       0       8        0.0%
  1723                           ;!BANK2              100      0       0       9        0.0%
  1724                           ;!BITBANK1           100      0       0       6        0.0%
  1725                           ;!BANK1              100      0       0       7        0.0%
  1726                           ;!BITBANK0            80      0       0       4        0.0%
  1727                           ;!BANK0               80      0       0       5        0.0%
  1728                           ;!BITCOMRAM           7F      0       0       0        0.0%
  1729                           ;!COMRAM              7F     22      33       1       40.2%
  1730                           ;!BITSFR               0      0       0      40        0.0%
  1731                           ;!SFR                  0      0       0      40        0.0%
  1732                           ;!STACK                0      0       6       2        0.0%
  1733                           ;!NULL                 0      0       0       0        0.0%
  1734                           ;!ABS                  0      0      33      15        0.0%
  1735                           ;!DATA                 0      0      39       3        0.0%
  1736                           ;!CODE                 0      0       0       0        0.0%
  1737                           
  1738                           	global	_main
  1739                           
  1740 ;; *************** function _main *****************
  1741 ;; Defined at:
  1742 ;;		line 85 in file "mainApp.c"
  1743 ;; Parameters:    Size  Location     Type
  1744 ;;  argc            2   28[COMRAM] int 
  1745 ;;  argv            3   30[COMRAM] PTR PTR unsigned char 
  1746 ;; Auto vars:     Size  Location     Type
  1747 ;;		None
  1748 ;; Return value:  Size  Location     Type
  1749 ;;                  2   28[COMRAM] int 
  1750 ;; Registers used:
  1751 ;;		wreg, fsr0l, fsr0h, fsr1l, fsr1h, fsr2l, fsr2h, status,2, status,0, pclat, tosl, structret, tblptrl, tblptrh, tblptr
       u, prodl, prodh, bsr, cstack
  1752 ;; Tracked objects:
  1753 ;;		On entry : 0/0
  1754 ;;		On exit  : 0/0
  1755 ;;		Unchanged: 0/0
  1756 ;; Data sizes:     COMRAM   BANK0   BANK1   BANK2   BANK3   BANK4   BANK5
  1757 ;;      Params:         5       0       0       0       0       0       0
  1758 ;;      Locals:         0       0       0       0       0       0       0
  1759 ;;      Temps:          1       0       0       0       0       0       0
  1760 ;;      Totals:         6       0       0       0       0       0       0
  1761 ;;Total ram usage:        6 bytes
  1762 ;; Hardware stack levels required when called:    4
  1763 ;; This function calls:
  1764 ;;		_init
  1765 ;;		_getPowerLine
  1766 ;;		_getDc
  1767 ;;		_getBat
  1768 ;;		_isPressedDs1990
  1769 ;;		_writeReadDs1990
  1770 ;; This function is called by:
  1771 ;;		Startup code after reset
  1772 ;; This function uses a non-reentrant model
  1773 ;;
  1774                           psect	text0,class=CODE,space=0,reloc=2
  1775                           global __ptext0
  1776  000422                     __ptext0:
  1777                           psect	text0
  1778                           	file	"mainApp.c"
  1779                           	line	85
  1780                           	global	__size_of_main
  1781  0000                     	__size_of_main	equ	__end_of_main-_main
  1782                           	
  1783  000422                     _main:
  1784                           	opt	stack 27
  1785                           	line	86
  1786                           	
  1787  000422                     l912:
  1788                           ;mainApp.c: 86: init();
  1789  000422  EC95  F002         	call	_init	;wreg free
  1790  000426  D000               	goto	l914
  1791                           	line	87
  1792                           ;mainApp.c: 87: while(1){
  1793                           	
  1794  000428                     l116:
  1795                           	line	88
  1796                           	
  1797  000428                     l914:
  1798                           ;mainApp.c: 88: if(!PORTBbits.RB4){
  1799                           	
  1800  000428  B881               	btfsc	((c:3969)),c,4	;volatile
  1801  00042A  D001               	goto	u11
  1802  00042C  D001               	goto	u10
  1803  00042E                     u11:
  1804  00042E  D7FC               	goto	l914
  1805  000430                     u10:
  1806                           	line	89
  1807                           	
  1808  000430                     l916:
  1809                           ;mainApp.c: 89: GIE = 0;
  1810  000430  9EF2               	bcf	c:(32663/8),(32663)&7	;volatile
  1811                           	line	91
  1812                           	
  1813  000432                     l918:
  1814                           ;mainApp.c: 91: state.stat0.er_pl = getPowerLine();
  1815  000432  EC7D  F001         	call	_getPowerLine	;wreg free
  1816  000436  6E22               	movwf	(??_main+0+0)&0ffh,c
  1817  000438  5023               	movf	((c:_state)),c,w
  1818  00043A  1822               	xorwf	((??_main+0+0)),c,w
  1819  00043C  0BF0               	andlw	not ((1<<4)-1)
  1820  00043E  1822               	xorwf	((??_main+0+0)),c,w
  1821  000440  6E23               	movwf	((c:_state)),c
  1822                           	line	92
  1823                           ;mainApp.c: 92: state.stat0.er_dc = getDc();
  1824  000442  ECB1  F003         	call	_getDc	;wreg free
  1825  000446  6E22               	movwf	(??_main+0+0)&0ffh,c
  1826  000448  3A22               	swapf	((??_main+0+0)),c
  1827  00044A  5023               	movf	((c:_state)),c,w
  1828  00044C  1822               	xorwf	((??_main+0+0)),c,w
  1829  00044E  0BEF               	andlw	not (((1<<1)-1)<<4)
  1830  000450  1822               	xorwf	((??_main+0+0)),c,w
  1831  000452  6E23               	movwf	((c:_state)),c
  1832                           	line	93
  1833                           ;mainApp.c: 93: state.stat0.er_bat = getBat();
  1834  000454  EC53  F002         	call	_getBat	;wreg free
  1835  000458  6E22               	movwf	(??_main+0+0)&0ffh,c
  1836  00045A  3A22               	swapf	((??_main+0+0)),c
  1837  00045C  4622               	rlncf	((??_main+0+0)),c
  1838  00045E  5023               	movf	((c:_state)),c,w
  1839  000460  1822               	xorwf	((??_main+0+0)),c,w
  1840  000462  0BDF               	andlw	not (((1<<1)-1)<<5)
  1841  000464  1822               	xorwf	((??_main+0+0)),c,w
  1842  000466  6E23               	movwf	((c:_state)),c
  1843                           	line	94
  1844                           	
  1845  000468                     l920:
  1846                           ;mainApp.c: 94: state.stat0.er_ac = PORTAbits.RA4;
  1847  000468  A880               	btfss	((c:3968)),c,4	;volatile
  1848  00046A  D002               	bra	u25
  1849  00046C  8C23               	bsf	((c:_state)),c,6
  1850  00046E  D001               	bra	u27
  1851  000470                     	u25:	
  1852  000470  9C23               	bcf	((c:_state)),c,6
  1853  000472                     	u27:
  1854                           	line	95
  1855                           	
  1856  000472                     l922:
  1857                           ;mainApp.c: 95: state.stat1.od = PORTBbits.RB1;
  1858  000472  A281               	btfss	((c:3969)),c,1	;volatile
  1859  000474  D002               	bra	u35
  1860  000476  8224               	bsf	(0+((c:_state)+01h)),c,1
  1861  000478  D001               	bra	u37
  1862  00047A                     	u35:	
  1863  00047A  9224               	bcf	(0+((c:_state)+01h)),c,1
  1864  00047C                     	u37:
  1865                           	line	97
  1866                           	
  1867  00047C                     l924:
  1868                           ;mainApp.c: 97: if(state.stat1.tm == 0){
  1869                           	
  1870  00047C  B024               	btfsc	(0+((c:_state)+01h)),c,0
  1871  00047E  D001               	goto	u41
  1872  000480  D001               	goto	u40
  1873  000482                     u41:
  1874  000482  D00B               	goto	l930
  1875  000484                     u40:
  1876                           	line	98
  1877                           	
  1878  000484                     l926:
  1879                           ;mainApp.c: 98: if(isPressedDs1990()) writeReadDs1990();
  1880  000484  EC7C  F003         	call	_isPressedDs1990	;wreg free
  1881  000488  0900               	iorlw	0
  1882  00048A  B4D8               	btfsc	status,2
  1883  00048C  D001               	goto	u51
  1884  00048E  D001               	goto	u50
  1885  000490                     u51:
  1886  000490  D004               	goto	l930
  1887  000492                     u50:
  1888                           	
  1889  000492                     l928:
  1890  000492  ECCB  F001         	call	_writeReadDs1990	;wreg free
  1891  000496  D001               	goto	l930
  1892                           	
  1893  000498                     l119:
  1894  000498  D000               	goto	l930
  1895                           	line	99
  1896                           	
  1897  00049A                     l118:
  1898                           	line	100
  1899                           	
  1900  00049A                     l930:
  1901                           ;mainApp.c: 99: }
  1902                           ;mainApp.c: 100: GIE = 1;
  1903  00049A  8EF2               	bsf	c:(32663/8),(32663)&7	;volatile
  1904  00049C  D7C5               	goto	l914
  1905                           	line	101
  1906                           	
  1907  00049E                     l117:
  1908  00049E  D7C4               	goto	l914
  1909                           	line	102
  1910                           	
  1911  0004A0                     l120:
  1912                           	line	87
  1913  0004A0  D7C3               	goto	l914
  1914                           	
  1915  0004A2                     l121:
  1916                           	line	104
  1917                           ;mainApp.c: 101: }
  1918                           ;mainApp.c: 102: }
  1919                           ;mainApp.c: 103: return (0);
  1920                           ;	Return value of _main is never used
  1921                           	
  1922  0004A2                     l122:
  1923                           	global	start
  1924  0004A2  EF0C  F000         	goto	start
  1925                           	opt stack 0
  1926                           GLOBAL	__end_of_main
  1927  0004A6                     	__end_of_main:
  1928                           	signat	_main,8314
  1929                           	global	_getPowerLine
  1930                           
  1931 ;; *************** function _getPowerLine *****************
  1932 ;; Defined at:
  1933 ;;		line 106 in file "mainApp.c"
  1934 ;; Parameters:    Size  Location     Type
  1935 ;;		None
  1936 ;; Auto vars:     Size  Location     Type
  1937 ;;  i               2   26[COMRAM] int 
  1938 ;;  result          1   25[COMRAM] unsigned char 
  1939 ;; Return value:  Size  Location     Type
  1940 ;;                  1    wreg      unsigned char 
  1941 ;; Registers used:
  1942 ;;		wreg, fsr0l, fsr0h, fsr1l, fsr1h, fsr2l, fsr2h, status,2, status,0, pclat, tosl, structret, tblptrl, tblptrh, tblptr
       u, prodl, prodh, bsr, cstack
  1943 ;; Tracked objects:
  1944 ;;		On entry : 0/0
  1945 ;;		On exit  : 0/0
  1946 ;;		Unchanged: 0/0
  1947 ;; Data sizes:     COMRAM   BANK0   BANK1   BANK2   BANK3   BANK4   BANK5
  1948 ;;      Params:         0       0       0       0       0       0       0
  1949 ;;      Locals:         5       0       0       0       0       0       0
  1950 ;;      Temps:          2       0       0       0       0       0       0
  1951 ;;      Totals:         7       0       0       0       0       0       0
  1952 ;;Total ram usage:        7 bytes
  1953 ;; Hardware stack levels used:    1
  1954 ;; Hardware stack levels required when called:    3
  1955 ;; This function calls:
  1956 ;;		_adc
  1957 ;; This function is called by:
  1958 ;;		_main
  1959 ;; This function uses a non-reentrant model
  1960 ;;
  1961                           psect	text1,class=CODE,space=0,reloc=2
  1962                           global __ptext1
  1963  0002FA                     __ptext1:
  1964                           psect	text1
  1965                           	file	"mainApp.c"
  1966                           	line	106
  1967                           	global	__size_of_getPowerLine
  1968  0000                     	__size_of_getPowerLine	equ	__end_of_getPowerLine-_getPowerLine
  1969                           	
  1970  0002FA                     _getPowerLine:
  1971                           	opt	stack 27
  1972                           	line	107
  1973                           	
  1974  0002FA                     l932:
  1975                           ;mainApp.c: 107: unsigned char result = 0x00;
  1976  0002FA  6E16               	movwf	(??_getPowerLine+0+0)&0ffh,c
  1977  0002FC  0E00               	movlw	low(0)
  1978  0002FE  6E1A               	movwf	((c:getPowerLine@result)),c
  1979  000300  5016               	movf	(??_getPowerLine+0+0)&0ffh,c,w
  1980                           	line	108
  1981                           	
  1982  000302                     l934:
  1983                           ;mainApp.c: 108: for(int i = 0; i < 4; i++){
  1984  000302  0E00               	movlw	high(0)
  1985  000304  6E1C               	movwf	((c:getPowerLine@i+1)),c
  1986  000306  0E00               	movlw	low(0)
  1987  000308  6E1B               	movwf	((c:getPowerLine@i)),c
  1988                           	
  1989  00030A                     l936:
  1990  00030A  501C               	movf	((c:getPowerLine@i+1)),c,w
  1991  00030C  0A80               	xorlw	80h
  1992  00030E  0F80               	addlw	-((0)^80h)
  1993  000310  0E04               	movlw	04h
  1994  000312  B4D8               	btfsc	status,2
  1995  000314  5C1B               	subwf	((c:getPowerLine@i)),c,w
  1996  000316  A0D8               	btfss	status,0
  1997  000318  D001               	goto	u61
  1998  00031A  D001               	goto	u60
  1999  00031C                     u61:
  2000  00031C  D002               	goto	l940
  2001  00031E                     u60:
  2002  00031E  D038               	goto	l954
  2003                           	
  2004  000320                     l938:
  2005  000320  D037               	goto	l954
  2006                           	
  2007  000322                     l125:
  2008                           	line	109
  2009                           	
  2010  000322                     l940:
  2011                           ;mainApp.c: 109: if(adc(i == 3 ? 4: i) < 202)
  2012  000322  501B               	movf	((c:getPowerLine@i)),c,w
  2013  000324  0A03               	xorlw	3
  2014  000326  101C               	iorwf ((c:getPowerLine@i+1)),c,w
  2015                           
  2016  000328  B4D8               	btfsc	status,2
  2017  00032A  D001               	goto	u71
  2018  00032C  D001               	goto	u70
  2019  00032E                     u71:
  2020  00032E  D005               	goto	l944
  2021  000330                     u70:
  2022                           	
  2023  000330                     l942:
  2024  000330  C01B  F018         	movff	(c:getPowerLine@i),(c:_getPowerLine$632)
  2025  000334  C01C  F019         	movff	(c:getPowerLine@i+1),(c:_getPowerLine$632+1)
  2026  000338  D005               	goto	l946
  2027                           	
  2028  00033A                     l129:
  2029                           	
  2030  00033A                     l944:
  2031  00033A  0E00               	movlw	high(04h)
  2032  00033C  6E19               	movwf	((c:_getPowerLine$632+1)),c
  2033  00033E  0E04               	movlw	low(04h)
  2034  000340  6E18               	movwf	((c:_getPowerLine$632)),c
  2035  000342  D000               	goto	l946
  2036                           	
  2037  000344                     l131:
  2038                           	
  2039  000344                     l946:
  2040  000344  C018  F012         	movff	(c:_getPowerLine$632),(c:?_adc)
  2041  000348  EC98  F003         	call	_adc	;wreg free
  2042  00034C  0ECA               	movlw	0CAh
  2043  00034E  5C12               	subwf	(0+?_adc),c,w
  2044  000350  0E00               	movlw	0
  2045  000352  5813               	subwfb	(1+?_adc),c,w
  2046  000354  B0D8               	btfsc	status,0
  2047  000356  D001               	goto	u81
  2048  000358  D001               	goto	u80
  2049  00035A                     u81:
  2050  00035A  D00D               	goto	l950
  2051  00035C                     u80:
  2052                           	line	110
  2053                           	
  2054  00035C                     l948:
  2055                           ;mainApp.c: 110: result |= (0x01 << i);
  2056  00035C  C01B  F016         	movff	(c:getPowerLine@i),??_getPowerLine+0+0
  2057  000360  0E01               	movlw	(01h)&0ffh
  2058  000362  6E17               	movwf	(??_getPowerLine+1+0)&0ffh,c
  2059  000364  2A16               	incf	(??_getPowerLine+0+0),c
  2060  000366  D002               	goto	u94
  2061  000368                     u95:
  2062  000368  90D8               	bcf	status,0
  2063  00036A  3617               	rlcf	((??_getPowerLine+1+0)),c
  2064  00036C                     u94:
  2065  00036C  2E16               	decfsz	(??_getPowerLine+0+0),c
  2066  00036E  D7FC               	goto	u95
  2067  000370  5017               	movf	((??_getPowerLine+1+0)),c,w
  2068  000372  121A               	iorwf	((c:getPowerLine@result)),c
  2069  000374  D000               	goto	l950
  2070                           	
  2071  000376                     l127:
  2072                           	line	108
  2073                           	
  2074  000376                     l950:
  2075  000376  4A1B               	infsnz	((c:getPowerLine@i)),c
  2076  000378  2A1C               	incf	((c:getPowerLine@i+1)),c
  2077                           	
  2078  00037A                     l952:
  2079  00037A  501C               	movf	((c:getPowerLine@i+1)),c,w
  2080  00037C  0A80               	xorlw	80h
  2081  00037E  0F80               	addlw	-((0)^80h)
  2082  000380  0E04               	movlw	04h
  2083  000382  B4D8               	btfsc	status,2
  2084  000384  5C1B               	subwf	((c:getPowerLine@i)),c,w
  2085  000386  A0D8               	btfss	status,0
  2086  000388  D001               	goto	u101
  2087  00038A  D001               	goto	u100
  2088  00038C                     u101:
  2089  00038C  D7CA               	goto	l940
  2090  00038E                     u100:
  2091  00038E  D000               	goto	l954
  2092                           	
  2093  000390                     l126:
  2094                           	line	112
  2095                           	
  2096  000390                     l954:
  2097                           ;mainApp.c: 111: }
  2098                           ;mainApp.c: 112: return result;
  2099  000390  501A               	movf	((c:getPowerLine@result)),c,w
  2100  000392  D000               	goto	l132
  2101                           	
  2102  000394                     l956:
  2103                           	line	113
  2104                           	
  2105  000394                     l132:
  2106  000394  0012               	return
  2107                           	opt stack 0
  2108                           GLOBAL	__end_of_getPowerLine
  2109  000396                     	__end_of_getPowerLine:
  2110                           	signat	_getPowerLine,89
  2111                           	global	_init
  2112                           
  2113 ;; *************** function _init *****************
  2114 ;; Defined at:
  2115 ;;		line 40 in file "mainApp.c"
  2116 ;; Parameters:    Size  Location     Type
  2117 ;;		None
  2118 ;; Auto vars:     Size  Location     Type
  2119 ;;		None
  2120 ;; Return value:  Size  Location     Type
  2121 ;;		None               void
  2122 ;; Registers used:
  2123 ;;		wreg, fsr0l, fsr0h, fsr1l, fsr1h, fsr2l, fsr2h, status,2, status,0, pclat, tosl, structret, tblptrl, tblptrh, tblptr
       u, prodl, prodh, bsr, cstack
  2124 ;; Tracked objects:
  2125 ;;		On entry : 0/0
  2126 ;;		On exit  : 0/0
  2127 ;;		Unchanged: 0/0
  2128 ;; Data sizes:     COMRAM   BANK0   BANK1   BANK2   BANK3   BANK4   BANK5
  2129 ;;      Params:         0       0       0       0       0       0       0
  2130 ;;      Locals:         0       0       0       0       0       0       0
  2131 ;;      Temps:          1       0       0       0       0       0       0
  2132 ;;      Totals:         1       0       0       0       0       0       0
  2133 ;;Total ram usage:        1 bytes
  2134 ;; Hardware stack levels used:    1
  2135 ;; Hardware stack levels required when called:    3
  2136 ;; This function calls:
  2137 ;;		_setRX
  2138 ;; This function is called by:
  2139 ;;		_main
  2140 ;; This function uses a non-reentrant model
  2141 ;;
  2142                           psect	text2,class=CODE,space=0,reloc=2
  2143                           global __ptext2
  2144  00052A                     __ptext2:
  2145                           psect	text2
  2146                           	file	"mainApp.c"
  2147                           	line	40
  2148                           	global	__size_of_init
  2149  0000                     	__size_of_init	equ	__end_of_init-_init
  2150                           	
  2151  00052A                     _init:
  2152                           	opt	stack 27
  2153                           	line	42
  2154                           	
  2155  00052A                     l898:
  2156                           ;mainApp.c: 42: T0CON = 0b00000111;
  2157  00052A  0E07               	movlw	low(07h)
  2158  00052C  6ED5               	movwf	((c:4053)),c	;volatile
  2159                           	line	43
  2160                           ;mainApp.c: 43: INTCON = 0b11000000;
  2161  00052E  0EC0               	movlw	low(0C0h)
  2162  000530  6EF2               	movwf	((c:4082)),c	;volatile
  2163                           	line	44
  2164                           ;mainApp.c: 44: INTCON2 = 0b10000000;
  2165  000532  0E80               	movlw	low(080h)
  2166  000534  6EF1               	movwf	((c:4081)),c	;volatile
  2167                           	line	45
  2168                           ;mainApp.c: 45: INTCON3 = 0b00000000;
  2169  000536  0E00               	movlw	low(0)
  2170  000538  6EF0               	movwf	((c:4080)),c	;volatile
  2171                           	line	47
  2172                           ;mainApp.c: 47: PIE1 = 0b00000000;
  2173  00053A  0E00               	movlw	low(0)
  2174  00053C  6E9D               	movwf	((c:3997)),c	;volatile
  2175                           	line	49
  2176                           ;mainApp.c: 49: ADCON0 = 0b00000001;
  2177  00053E  0E01               	movlw	low(01h)
  2178  000540  6EC2               	movwf	((c:4034)),c	;volatile
  2179                           	line	50
  2180                           ;mainApp.c: 50: ADCON1 = 0b00010101;
  2181  000542  0E15               	movlw	low(015h)
  2182  000544  6EC1               	movwf	((c:4033)),c	;volatile
  2183                           	line	51
  2184                           ;mainApp.c: 51: ADCON2 = 0b10000010;
  2185  000546  0E82               	movlw	low(082h)
  2186  000548  6EC0               	movwf	((c:4032)),c	;volatile
  2187                           	line	53
  2188                           ;mainApp.c: 53: T0CON = 0b10000000;
  2189  00054A  0E80               	movlw	low(080h)
  2190  00054C  6ED5               	movwf	((c:4053)),c	;volatile
  2191                           	line	54
  2192                           ;mainApp.c: 54: T1CON = 0b00100001;
  2193  00054E  0E21               	movlw	low(021h)
  2194  000550  6ECD               	movwf	((c:4045)),c	;volatile
  2195                           	line	55
  2196                           ;mainApp.c: 55: T2CON = 0b00100000;
  2197  000552  0E20               	movlw	low(020h)
  2198  000554  6ECA               	movwf	((c:4042)),c	;volatile
  2199                           	line	56
  2200                           	
  2201  000556                     l900:
  2202                           ;mainApp.c: 56: TMR0IE = 1;
  2203  000556  8AF2               	bsf	c:(32661/8),(32661)&7	;volatile
  2204                           	line	58
  2205                           ;mainApp.c: 58: TXSTA = 0b01100100;
  2206  000558  0E64               	movlw	low(064h)
  2207  00055A  6EAC               	movwf	((c:4012)),c	;volatile
  2208                           	line	59
  2209                           ;mainApp.c: 59: RCSTA = 0b11000000;
  2210  00055C  0EC0               	movlw	low(0C0h)
  2211  00055E  6EAB               	movwf	((c:4011)),c	;volatile
  2212                           	line	60
  2213                           ;mainApp.c: 60: SPBRG = 8;
  2214  000560  0E08               	movlw	low(08h)
  2215  000562  6EAF               	movwf	((c:4015)),c	;volatile
  2216                           	line	62
  2217                           ;mainApp.c: 62: CMCON = 0b00000111;
  2218  000564  0E07               	movlw	low(07h)
  2219  000566  6EB4               	movwf	((c:4020)),c	;volatile
  2220                           	line	63
  2221                           ;mainApp.c: 63: FSR1H = 0b00000000;
  2222  000568  0E00               	movlw	low(0)
  2223  00056A  6EE2               	movwf	((c:4066)),c	;volatile
  2224                           	line	64
  2225                           ;mainApp.c: 64: FSR2H = 0b00000000;
  2226  00056C  0E00               	movlw	low(0)
  2227  00056E  6EDA               	movwf	((c:4058)),c	;volatile
  2228                           	line	66
  2229                           ;mainApp.c: 66: TRISA = 0b00111111;
  2230  000570  0E3F               	movlw	low(03Fh)
  2231  000572  6E92               	movwf	((c:3986)),c	;volatile
  2232                           	line	67
  2233                           ;mainApp.c: 67: TRISB = 0b11001111;
  2234  000574  0ECF               	movlw	low(0CFh)
  2235  000576  6E93               	movwf	((c:3987)),c	;volatile
  2236                           	line	68
  2237                           ;mainApp.c: 68: TRISC = 0b11000000;
  2238  000578  0EC0               	movlw	low(0C0h)
  2239  00057A  6E94               	movwf	((c:3988)),c	;volatile
  2240                           	line	70
  2241                           ;mainApp.c: 70: LATA = 0b00000000;
  2242  00057C  0E00               	movlw	low(0)
  2243  00057E  6E89               	movwf	((c:3977)),c	;volatile
  2244                           	line	71
  2245                           ;mainApp.c: 71: LATB = 0b00000000;
  2246  000580  0E00               	movlw	low(0)
  2247  000582  6E8A               	movwf	((c:3978)),c	;volatile
  2248                           	line	72
  2249                           ;mainApp.c: 72: LATC = 0b00000000;
  2250  000584  0E00               	movlw	low(0)
  2251  000586  6E8B               	movwf	((c:3979)),c	;volatile
  2252                           	line	74
  2253                           ;mainApp.c: 74: PORTA = 0b00000000;
  2254  000588  0E00               	movlw	low(0)
  2255  00058A  6E80               	movwf	((c:3968)),c	;volatile
  2256                           	line	75
  2257                           ;mainApp.c: 75: PORTB = 0b00000000;
  2258  00058C  0E00               	movlw	low(0)
  2259  00058E  6E81               	movwf	((c:3969)),c	;volatile
  2260                           	line	76
  2261                           ;mainApp.c: 76: PORTC = 0b00000000;
  2262  000590  0E00               	movlw	low(0)
  2263  000592  6E82               	movwf	((c:3970)),c	;volatile
  2264                           	line	78
  2265                           	
  2266  000594                     l902:
  2267                           ;mainApp.c: 78: dmcuWoR = 0;
  2268  000594  6E12               	movwf	(??_init+0+0)&0ffh,c
  2269  000596  0E00               	movlw	low(0)
  2270  000598  6E26               	movwf	((c:_dmcuWoR)),c
  2271  00059A  5012               	movf	(??_init+0+0)&0ffh,c,w
  2272                           	line	79
  2273                           	
  2274  00059C                     l904:
  2275                           ;mainApp.c: 79: indexOutByte = 1;
  2276  00059C  6E12               	movwf	(??_init+0+0)&0ffh,c
  2277  00059E  0E01               	movlw	low(01h)
  2278  0005A0  6E33               	movwf	((c:_indexOutByte)),c
  2279  0005A2  5012               	movf	(??_init+0+0)&0ffh,c,w
  2280                           	line	80
  2281                           	
  2282  0005A4                     l906:
  2283                           ;mainApp.c: 80: PORTBbits.RB4 = 1;
  2284  0005A4  8881               	bsf	((c:3969)),c,4	;volatile
  2285                           	line	81
  2286                           	
  2287  0005A6                     l908:
  2288                           ;mainApp.c: 81: setRX();
  2289  0005A6  ECE9  F003         	call	_setRX	;wreg free
  2290                           	line	82
  2291                           	
  2292  0005AA                     l113:
  2293  0005AA  0012               	return
  2294                           	opt stack 0
  2295                           GLOBAL	__end_of_init
  2296  0005AC                     	__end_of_init:
  2297                           	signat	_init,88
  2298                           	global	_setRX
  2299                           
  2300 ;; *************** function _setRX *****************
  2301 ;; Defined at:
  2302 ;;		line 145 in file "mainApp.c"
  2303 ;; Parameters:    Size  Location     Type
  2304 ;;		None
  2305 ;; Auto vars:     Size  Location     Type
  2306 ;;		None
  2307 ;; Return value:  Size  Location     Type
  2308 ;;		None               void
  2309 ;; Registers used:
  2310 ;;		None
  2311 ;; Tracked objects:
  2312 ;;		On entry : 0/0
  2313 ;;		On exit  : 0/0
  2314 ;;		Unchanged: 0/0
  2315 ;; Data sizes:     COMRAM   BANK0   BANK1   BANK2   BANK3   BANK4   BANK5
  2316 ;;      Params:         0       0       0       0       0       0       0
  2317 ;;      Locals:         0       0       0       0       0       0       0
  2318 ;;      Temps:          0       0       0       0       0       0       0
  2319 ;;      Totals:         0       0       0       0       0       0       0
  2320 ;;Total ram usage:        0 bytes
  2321 ;; Hardware stack levels used:    1
  2322 ;; Hardware stack levels required when called:    2
  2323 ;; This function calls:
  2324 ;;		Nothing
  2325 ;; This function is called by:
  2326 ;;		_init
  2327 ;; This function uses a non-reentrant model
  2328 ;;
  2329                           psect	text3,class=CODE,space=0,reloc=2
  2330                           global __ptext3
  2331  0007D2                     __ptext3:
  2332                           psect	text3
  2333                           	file	"mainApp.c"
  2334                           	line	145
  2335                           	global	__size_of_setRX
  2336  0000                     	__size_of_setRX	equ	__end_of_setRX-_setRX
  2337                           	
  2338  0007D2                     _setRX:
  2339                           	opt	stack 27
  2340                           	line	146
  2341                           	
  2342  0007D2                     l910:
  2343                           ;mainApp.c: 146: PORTBbits.RB4 = 0;
  2344  0007D2  9881               	bcf	((c:3969)),c,4	;volatile
  2345                           	line	147
  2346                           ;mainApp.c: 147: PORTCbits.RC4 = 0;
  2347  0007D4  9882               	bcf	((c:3970)),c,4	;volatile
  2348                           	line	148
  2349                           ;mainApp.c: 148: TXSTAbits.TXEN = 0;
  2350  0007D6  9AAC               	bcf	((c:4012)),c,5	;volatile
  2351                           	line	149
  2352                           ;mainApp.c: 149: PIE1bits.TXIE = 0;
  2353  0007D8  989D               	bcf	((c:3997)),c,4	;volatile
  2354                           	line	150
  2355                           ;mainApp.c: 150: RCSTA1bits.ADDEN = 0;
  2356  0007DA  96AB               	bcf	((c:4011)),c,3	;volatile
  2357                           	line	151
  2358                           ;mainApp.c: 151: RCSTA1bits.CREN = 1;
  2359  0007DC  88AB               	bsf	((c:4011)),c,4	;volatile
  2360                           	line	152
  2361                           ;mainApp.c: 152: PIE1bits.RCIE = 1;
  2362  0007DE  8A9D               	bsf	((c:3997)),c,5	;volatile
  2363                           	line	153
  2364                           	
  2365  0007E0                     l151:
  2366  0007E0  0012               	return
  2367                           	opt stack 0
  2368                           GLOBAL	__end_of_setRX
  2369  0007E2                     	__end_of_setRX:
  2370                           	signat	_setRX,88
  2371                           	global	_getBat
  2372                           
  2373 ;; *************** function _getBat *****************
  2374 ;; Defined at:
  2375 ;;		line 121 in file "mainApp.c"
  2376 ;; Parameters:    Size  Location     Type
  2377 ;;		None
  2378 ;; Auto vars:     Size  Location     Type
  2379 ;;		None
  2380 ;; Return value:  Size  Location     Type
  2381 ;;                  1    wreg      unsigned char 
  2382 ;; Registers used:
  2383 ;;		wreg, fsr0l, fsr0h, fsr1l, fsr1h, fsr2l, fsr2h, status,2, status,0, pclat, tosl, structret, tblptrl, tblptrh, tblptr
       u, prodl, prodh, bsr, cstack
  2384 ;; Tracked objects:
  2385 ;;		On entry : 0/0
  2386 ;;		On exit  : 0/0
  2387 ;;		Unchanged: 0/0
  2388 ;; Data sizes:     COMRAM   BANK0   BANK1   BANK2   BANK3   BANK4   BANK5
  2389 ;;      Params:         0       0       0       0       0       0       0
  2390 ;;      Locals:         0       0       0       0       0       0       0
  2391 ;;      Temps:          1       0       0       0       0       0       0
  2392 ;;      Totals:         1       0       0       0       0       0       0
  2393 ;;Total ram usage:        1 bytes
  2394 ;; Hardware stack levels used:    1
  2395 ;; Hardware stack levels required when called:    3
  2396 ;; This function calls:
  2397 ;;		_adc
  2398 ;; This function is called by:
  2399 ;;		_main
  2400 ;; This function uses a non-reentrant model
  2401 ;;
  2402                           psect	text4,class=CODE,space=0,reloc=2
  2403                           global __ptext4
  2404  0004A6                     __ptext4:
  2405                           psect	text4
  2406                           	file	"mainApp.c"
  2407                           	line	121
  2408                           	global	__size_of_getBat
  2409  0000                     	__size_of_getBat	equ	__end_of_getBat-_getBat
  2410                           	
  2411  0004A6                     _getBat:
  2412                           	opt	stack 27
  2413                           	line	122
  2414                           	
  2415  0004A6                     l968:
  2416                           ;mainApp.c: 122: if(shunt && !state.stat0.er_dc){
  2417  0004A6  502A               	movf	((c:_shunt)),c,w
  2418  0004A8  B4D8               	btfsc	status,2
  2419  0004AA  D001               	goto	u121
  2420  0004AC  D001               	goto	u120
  2421  0004AE                     u121:
  2422  0004AE  D03C               	goto	l141
  2423  0004B0                     u120:
  2424                           	
  2425  0004B0                     l970:
  2426                           	
  2427  0004B0  B823               	btfsc	((c:_state)),c,4
  2428  0004B2  D001               	goto	u131
  2429  0004B4  D001               	goto	u130
  2430  0004B6                     u131:
  2431  0004B6  D038               	goto	l141
  2432  0004B8                     u130:
  2433                           	line	123
  2434                           	
  2435  0004B8                     l972:
  2436                           ;mainApp.c: 123: if(adc(9) < 0x01B0)
  2437  0004B8  6E16               	movwf	(??_getBat+0+0)&0ffh,c
  2438  0004BA  0E09               	movlw	low(09h)
  2439  0004BC  6E12               	movwf	((c:?_adc)),c
  2440  0004BE  5016               	movf	(??_getBat+0+0)&0ffh,c,w
  2441  0004C0  EC98  F003         	call	_adc	;wreg free
  2442  0004C4  0EB0               	movlw	0B0h
  2443  0004C6  5C12               	subwf	(0+?_adc),c,w
  2444  0004C8  0E01               	movlw	01h
  2445  0004CA  5813               	subwfb	(1+?_adc),c,w
  2446  0004CC  B0D8               	btfsc	status,0
  2447  0004CE  D001               	goto	u141
  2448  0004D0  D001               	goto	u140
  2449  0004D2                     u141:
  2450  0004D2  D003               	goto	l140
  2451  0004D4                     u140:
  2452                           	line	124
  2453                           	
  2454  0004D4                     l974:
  2455                           ;mainApp.c: 124: return 1;
  2456  0004D4  0E01               	movlw	(01h)&0ffh
  2457  0004D6  D028               	goto	l141
  2458                           	
  2459  0004D8                     l976:
  2460  0004D8  D027               	goto	l141
  2461                           	
  2462  0004DA                     l140:
  2463                           	line	125
  2464                           ;mainApp.c: 125: PORTCbits.RC5 = 1;
  2465  0004DA  8A82               	bsf	((c:3970)),c,5	;volatile
  2466                           	line	126
  2467                           	
  2468  0004DC                     l978:
  2469                           ;mainApp.c: 126: _delay((unsigned long)((500)*(16000000/4000000.0)));
  2470  0004DC  0E03               	movlw	3
  2471  0004DE  6E16               movwf	(??_getBat+0+0)&0ffh,c,f
  2472  0004E0  0E97               	movlw	151
  2473  0004E2                     u2347:
  2474  0004E2  2EE8               	decfsz	wreg,f
  2475  0004E4  D7FE               	goto	u2347
  2476  0004E6  2E16               	decfsz	(??_getBat+0+0)&0ffh,c,f
  2477  0004E8  D7FC               	goto	u2347
  2478  0004EA  D000               	nop2
  2479                           
  2480                           	line	127
  2481                           	
  2482  0004EC                     l980:
  2483                           ;mainApp.c: 127: if(adc(9) < 0x01B0) {
  2484  0004EC  6E16               	movwf	(??_getBat+0+0)&0ffh,c
  2485  0004EE  0E09               	movlw	low(09h)
  2486  0004F0  6E12               	movwf	((c:?_adc)),c
  2487  0004F2  5016               	movf	(??_getBat+0+0)&0ffh,c,w
  2488  0004F4  EC98  F003         	call	_adc	;wreg free
  2489  0004F8  0EB0               	movlw	0B0h
  2490  0004FA  5C12               	subwf	(0+?_adc),c,w
  2491  0004FC  0E01               	movlw	01h
  2492  0004FE  5813               	subwfb	(1+?_adc),c,w
  2493  000500  B0D8               	btfsc	status,0
  2494  000502  D001               	goto	u151
  2495  000504  D001               	goto	u150
  2496  000506                     u151:
  2497  000506  D008               	goto	l142
  2498  000508                     u150:
  2499                           	line	128
  2500                           	
  2501  000508                     l982:
  2502                           ;mainApp.c: 128: PORTCbits.RC5 = 0;
  2503  000508  9A82               	bcf	((c:3970)),c,5	;volatile
  2504                           	line	129
  2505                           	
  2506  00050A                     l984:
  2507                           ;mainApp.c: 129: shunt = 0;
  2508  00050A  6E16               	movwf	(??_getBat+0+0)&0ffh,c
  2509  00050C  0E00               	movlw	low(0)
  2510  00050E  6E2A               	movwf	((c:_shunt)),c
  2511  000510  5016               	movf	(??_getBat+0+0)&0ffh,c,w
  2512                           	line	130
  2513                           	
  2514  000512                     l986:
  2515                           ;mainApp.c: 130: return 1;
  2516  000512  0E01               	movlw	(01h)&0ffh
  2517  000514  D009               	goto	l141
  2518                           	
  2519  000516                     l988:
  2520  000516  D008               	goto	l141
  2521                           	line	131
  2522                           	
  2523  000518                     l142:
  2524                           	line	132
  2525                           ;mainApp.c: 131: }
  2526                           ;mainApp.c: 132: PORTCbits.RC5 = 0;
  2527  000518  9A82               	bcf	((c:3970)),c,5	;volatile
  2528                           	line	133
  2529                           	
  2530  00051A                     l990:
  2531                           ;mainApp.c: 133: shunt = 0;
  2532  00051A  6E16               	movwf	(??_getBat+0+0)&0ffh,c
  2533  00051C  0E00               	movlw	low(0)
  2534  00051E  6E2A               	movwf	((c:_shunt)),c
  2535  000520  5016               	movf	(??_getBat+0+0)&0ffh,c,w
  2536                           	line	134
  2537                           	
  2538  000522                     l992:
  2539                           ;mainApp.c: 134: return 0;
  2540  000522  0E00               	movlw	(0)&0ffh
  2541  000524  D001               	goto	l141
  2542                           	
  2543  000526                     l994:
  2544  000526  D000               	goto	l141
  2545                           	line	135
  2546                           	
  2547  000528                     l139:
  2548                           	line	136
  2549                           	
  2550  000528                     l141:
  2551  000528  0012               	return
  2552                           	opt stack 0
  2553                           GLOBAL	__end_of_getBat
  2554  00052A                     	__end_of_getBat:
  2555                           	signat	_getBat,89
  2556                           	global	_getDc
  2557                           
  2558 ;; *************** function _getDc *****************
  2559 ;; Defined at:
  2560 ;;		line 115 in file "mainApp.c"
  2561 ;; Parameters:    Size  Location     Type
  2562 ;;		None
  2563 ;; Auto vars:     Size  Location     Type
  2564 ;;		None
  2565 ;; Return value:  Size  Location     Type
  2566 ;;                  1    wreg      unsigned char 
  2567 ;; Registers used:
  2568 ;;		wreg, fsr0l, fsr0h, fsr1l, fsr1h, fsr2l, fsr2h, status,2, status,0, pclat, tosl, structret, tblptrl, tblptrh, tblptr
       u, prodl, prodh, bsr, cstack
  2569 ;; Tracked objects:
  2570 ;;		On entry : 0/0
  2571 ;;		On exit  : 0/0
  2572 ;;		Unchanged: 0/0
  2573 ;; Data sizes:     COMRAM   BANK0   BANK1   BANK2   BANK3   BANK4   BANK5
  2574 ;;      Params:         0       0       0       0       0       0       0
  2575 ;;      Locals:         0       0       0       0       0       0       0
  2576 ;;      Temps:          1       0       0       0       0       0       0
  2577 ;;      Totals:         1       0       0       0       0       0       0
  2578 ;;Total ram usage:        1 bytes
  2579 ;; Hardware stack levels used:    1
  2580 ;; Hardware stack levels required when called:    3
  2581 ;; This function calls:
  2582 ;;		_adc
  2583 ;; This function is called by:
  2584 ;;		_main
  2585 ;; This function uses a non-reentrant model
  2586 ;;
  2587                           psect	text5,class=CODE,space=0,reloc=2
  2588                           global __ptext5
  2589  000762                     __ptext5:
  2590                           psect	text5
  2591                           	file	"mainApp.c"
  2592                           	line	115
  2593                           	global	__size_of_getDc
  2594  0000                     	__size_of_getDc	equ	__end_of_getDc-_getDc
  2595                           	
  2596  000762                     _getDc:
  2597                           	opt	stack 27
  2598                           	line	116
  2599                           	
  2600  000762                     l958:
  2601                           ;mainApp.c: 116: if(adc(8) < 202)
  2602  000762  6E16               	movwf	(??_getDc+0+0)&0ffh,c
  2603  000764  0E08               	movlw	low(08h)
  2604  000766  6E12               	movwf	((c:?_adc)),c
  2605  000768  5016               	movf	(??_getDc+0+0)&0ffh,c,w
  2606  00076A  EC98  F003         	call	_adc	;wreg free
  2607  00076E  0ECA               	movlw	0CAh
  2608  000770  5C12               	subwf	(0+?_adc),c,w
  2609  000772  0E00               	movlw	0
  2610  000774  5813               	subwfb	(1+?_adc),c,w
  2611  000776  B0D8               	btfsc	status,0
  2612  000778  D001               	goto	u111
  2613  00077A  D001               	goto	u110
  2614  00077C                     u111:
  2615  00077C  D003               	goto	l964
  2616  00077E                     u110:
  2617                           	line	117
  2618                           	
  2619  00077E                     l960:
  2620                           ;mainApp.c: 117: return 1;
  2621  00077E  0E01               	movlw	(01h)&0ffh
  2622  000780  D003               	goto	l136
  2623                           	
  2624  000782                     l962:
  2625  000782  D002               	goto	l136
  2626                           	
  2627  000784                     l135:
  2628                           	line	118
  2629                           	
  2630  000784                     l964:
  2631                           ;mainApp.c: 118: return 0;
  2632  000784  0E00               	movlw	(0)&0ffh
  2633  000786  D000               	goto	l136
  2634                           	
  2635  000788                     l966:
  2636                           	line	119
  2637                           	
  2638  000788                     l136:
  2639  000788  0012               	return
  2640                           	opt stack 0
  2641                           GLOBAL	__end_of_getDc
  2642  00078A                     	__end_of_getDc:
  2643                           	signat	_getDc,89
  2644                           	global	_writeReadDs1990
  2645                           
  2646 ;; *************** function _writeReadDs1990 *****************
  2647 ;; Defined at:
  2648 ;;		line 19 in file "ds1990.c"
  2649 ;; Parameters:    Size  Location     Type
  2650 ;;		None
  2651 ;; Auto vars:     Size  Location     Type
  2652 ;;  i               2   23[COMRAM] int 
  2653 ;; Return value:  Size  Location     Type
  2654 ;;                  1    wreg      unsigned char 
  2655 ;; Registers used:
  2656 ;;		wreg, fsr0l, fsr0h, fsr1l, fsr1h, fsr2l, fsr2h, status,2, status,0, pclat, tosl, structret, tblptrl, tblptrh, tblptr
       u, prodl, prodh, bsr, cstack
  2657 ;; Tracked objects:
  2658 ;;		On entry : 0/0
  2659 ;;		On exit  : 0/0
  2660 ;;		Unchanged: 0/0
  2661 ;; Data sizes:     COMRAM   BANK0   BANK1   BANK2   BANK3   BANK4   BANK5
  2662 ;;      Params:         0       0       0       0       0       0       0
  2663 ;;      Locals:         2       0       0       0       0       0       0
  2664 ;;      Temps:          1       0       0       0       0       0       0
  2665 ;;      Totals:         3       0       0       0       0       0       0
  2666 ;;Total ram usage:        3 bytes
  2667 ;; Hardware stack levels used:    1
  2668 ;; Hardware stack levels required when called:    3
  2669 ;; This function calls:
  2670 ;;		_outByteWire
  2671 ;;		_readByteWire
  2672 ;;		_getCRC8
  2673 ;; This function is called by:
  2674 ;;		_main
  2675 ;; This function uses a non-reentrant model
  2676 ;;
  2677                           psect	text6,class=CODE,space=0,reloc=2
  2678                           global __ptext6
  2679  000396                     __ptext6:
  2680                           psect	text6
  2681                           	file	"ds1990.c"
  2682                           	line	19
  2683                           	global	__size_of_writeReadDs1990
  2684  0000                     	__size_of_writeReadDs1990	equ	__end_of_writeReadDs1990-_writeReadDs1990
  2685                           	
  2686  000396                     _writeReadDs1990:
  2687                           	opt	stack 27
  2688                           	line	20
  2689                           	
  2690  000396                     l1012:
  2691                           ;ds1990.c: 20: outByteWire(0x33);
  2692  000396  6E17               	movwf	(??_writeReadDs1990+0+0)&0ffh,c
  2693  000398  0E33               	movlw	low(033h)
  2694  00039A  6E12               	movwf	((c:?_outByteWire)),c
  2695  00039C  5017               	movf	(??_writeReadDs1990+0+0)&0ffh,c,w
  2696  00039E  EC4C  F003         	call	_outByteWire	;wreg free
  2697                           	line	21
  2698                           ;ds1990.c: 21: if((tmValue.data[0] = readByteWire()) != 0x01){
  2699  0003A2  EC11  F003         	call	_readByteWire	;wreg free
  2700  0003A6  6E2B               	movwf	((c:_tmValue)),c
  2701  0003A8  042B               	decf	((c:_tmValue))&0ffh,w
  2702                           
  2703  0003AA  B4D8               	btfsc	status,2
  2704  0003AC  D001               	goto	u191
  2705  0003AE  D001               	goto	u190
  2706  0003B0                     u191:
  2707  0003B0  D002               	goto	l1016
  2708  0003B2                     u190:
  2709  0003B2  D036               	goto	l278
  2710                           	line	22
  2711                           	
  2712  0003B4                     l1014:
  2713                           ;ds1990.c: 22: return 0;
  2714                           ;	Return value of _writeReadDs1990 is never used
  2715  0003B4  D035               	goto	l278
  2716                           	line	23
  2717                           	
  2718  0003B6                     l277:
  2719                           	line	24
  2720                           	
  2721  0003B6                     l1016:
  2722                           ;ds1990.c: 23: }
  2723                           ;ds1990.c: 24: for(int i = 1; i < 8; i++){
  2724  0003B6  0E00               	movlw	high(01h)
  2725  0003B8  6E19               	movwf	((c:writeReadDs1990@i+1)),c
  2726  0003BA  0E01               	movlw	low(01h)
  2727  0003BC  6E18               	movwf	((c:writeReadDs1990@i)),c
  2728                           	
  2729  0003BE                     l1018:
  2730  0003BE  5019               	movf	((c:writeReadDs1990@i+1)),c,w
  2731  0003C0  0A80               	xorlw	80h
  2732  0003C2  0F80               	addlw	-((0)^80h)
  2733  0003C4  0E08               	movlw	08h
  2734  0003C6  B4D8               	btfsc	status,2
  2735  0003C8  5C18               	subwf	((c:writeReadDs1990@i)),c,w
  2736  0003CA  A0D8               	btfss	status,0
  2737  0003CC  D001               	goto	u201
  2738  0003CE  D001               	goto	u200
  2739  0003D0                     u201:
  2740  0003D0  D002               	goto	l1022
  2741  0003D2                     u200:
  2742  0003D2  D019               	goto	l1028
  2743                           	
  2744  0003D4                     l1020:
  2745  0003D4  D018               	goto	l1028
  2746                           	
  2747  0003D6                     l279:
  2748                           	line	25
  2749                           	
  2750  0003D6                     l1022:
  2751                           ;ds1990.c: 25: tmValue.data[i] = readByteWire();
  2752  0003D6  EC11  F003         	call	_readByteWire	;wreg free
  2753  0003DA  6E17               	movwf	(??_writeReadDs1990+0+0)&0ffh,c
  2754  0003DC  0E2B               	movlw	low((c:_tmValue))
  2755  0003DE  2418               	addwf	((c:writeReadDs1990@i)),c,w
  2756  0003E0  6ED9               	movwf	c:fsr2l
  2757  0003E2  6ADA               	clrf	1+c:fsr2l
  2758  0003E4  0E00               	movlw	high((c:_tmValue))
  2759  0003E6  22DA               	addwfc	1+c:fsr2l
  2760  0003E8  C017  FFDF         	movff	(??_writeReadDs1990+0+0),indf2
  2761                           
  2762                           	line	24
  2763                           	
  2764  0003EC                     l1024:
  2765  0003EC  4A18               	infsnz	((c:writeReadDs1990@i)),c
  2766  0003EE  2A19               	incf	((c:writeReadDs1990@i+1)),c
  2767                           	
  2768  0003F0                     l1026:
  2769  0003F0  5019               	movf	((c:writeReadDs1990@i+1)),c,w
  2770  0003F2  0A80               	xorlw	80h
  2771  0003F4  0F80               	addlw	-((0)^80h)
  2772  0003F6  0E08               	movlw	08h
  2773  0003F8  B4D8               	btfsc	status,2
  2774  0003FA  5C18               	subwf	((c:writeReadDs1990@i)),c,w
  2775  0003FC  A0D8               	btfss	status,0
  2776  0003FE  D001               	goto	u211
  2777  000400  D001               	goto	u210
  2778  000402                     u211:
  2779  000402  D7E9               	goto	l1022
  2780  000404                     u210:
  2781  000404  D000               	goto	l1028
  2782                           	
  2783  000406                     l280:
  2784                           	line	27
  2785                           	
  2786  000406                     l1028:
  2787                           ;ds1990.c: 26: }
  2788                           ;ds1990.c: 27: if(getCRC8(tmValue.data)){
  2789  000406  0E00               	movlw	high((c:_tmValue))
  2790  000408  6E13               	movwf	((c:?_getCRC8+1)),c
  2791  00040A  0E2B               	movlw	low((c:_tmValue))
  2792  00040C  6E12               	movwf	((c:?_getCRC8)),c
  2793  00040E  ECD6  F002         	call	_getCRC8	;wreg free
  2794  000412  0900               	iorlw	0
  2795  000414  B4D8               	btfsc	status,2
  2796  000416  D001               	goto	u221
  2797  000418  D001               	goto	u220
  2798  00041A                     u221:
  2799  00041A  D002               	goto	l278
  2800  00041C                     u220:
  2801                           	line	28
  2802                           	
  2803  00041C                     l1030:
  2804                           ;ds1990.c: 28: state.stat1.tm = 1;
  2805  00041C  8024               	bsf	(0+((c:_state)+01h)),c,0
  2806                           	line	29
  2807                           ;ds1990.c: 29: return 1;
  2808                           ;	Return value of _writeReadDs1990 is never used
  2809  00041E  D000               	goto	l278
  2810                           	line	30
  2811                           	
  2812  000420                     l281:
  2813                           	line	32
  2814                           ;ds1990.c: 30: }
  2815                           ;ds1990.c: 31: return 0;
  2816                           ;	Return value of _writeReadDs1990 is never used
  2817                           	
  2818  000420                     l278:
  2819  000420  0012               	return
  2820                           	opt stack 0
  2821                           GLOBAL	__end_of_writeReadDs1990
  2822  000422                     	__end_of_writeReadDs1990:
  2823                           	signat	_writeReadDs1990,89
  2824                           	global	_isPressedDs1990
  2825                           
  2826 ;; *************** function _isPressedDs1990 *****************
  2827 ;; Defined at:
  2828 ;;		line 6 in file "ds1990.c"
  2829 ;; Parameters:    Size  Location     Type
  2830 ;;		None
  2831 ;; Auto vars:     Size  Location     Type
  2832 ;;		None
  2833 ;; Return value:  Size  Location     Type
  2834 ;;                  1    wreg      unsigned char 
  2835 ;; Registers used:
  2836 ;;		wreg, fsr0l, fsr0h, fsr1l, fsr1h, fsr2l, fsr2h, status,2, status,0, pclat, tosl, structret, tblptrl, tblptrh, tblptr
       u, prodl, prodh, bsr, cstack
  2837 ;; Tracked objects:
  2838 ;;		On entry : 0/0
  2839 ;;		On exit  : 0/0
  2840 ;;		Unchanged: 0/0
  2841 ;; Data sizes:     COMRAM   BANK0   BANK1   BANK2   BANK3   BANK4   BANK5
  2842 ;;      Params:         0       0       0       0       0       0       0
  2843 ;;      Locals:         0       0       0       0       0       0       0
  2844 ;;      Temps:          0       0       0       0       0       0       0
  2845 ;;      Totals:         0       0       0       0       0       0       0
  2846 ;;Total ram usage:        0 bytes
  2847 ;; Hardware stack levels used:    1
  2848 ;; Hardware stack levels required when called:    3
  2849 ;; This function calls:
  2850 ;;		_resetWire
  2851 ;; This function is called by:
  2852 ;;		_main
  2853 ;; This function uses a non-reentrant model
  2854 ;;
  2855                           psect	text7,class=CODE,space=0,reloc=2
  2856                           global __ptext7
  2857  0006F8                     __ptext7:
  2858                           psect	text7
  2859                           	file	"ds1990.c"
  2860                           	line	6
  2861                           	global	__size_of_isPressedDs1990
  2862  0000                     	__size_of_isPressedDs1990	equ	__end_of_isPressedDs1990-_isPressedDs1990
  2863                           	
  2864  0006F8                     _isPressedDs1990:
  2865                           	opt	stack 27
  2866                           	line	7
  2867                           	
  2868  0006F8                     l996:
  2869                           ;ds1990.c: 7: resetWire();
  2870  0006F8  ECC5  F003         	call	_resetWire	;wreg free
  2871                           	line	8
  2872                           	
  2873  0006FC                     l998:
  2874                           ;ds1990.c: 8: if(PORTBbits.RB0){
  2875                           	
  2876  0006FC  A081               	btfss	((c:3969)),c,0	;volatile
  2877  0006FE  D001               	goto	u161
  2878  000700  D001               	goto	u160
  2879  000702                     u161:
  2880  000702  D015               	goto	l274
  2881  000704                     u160:
  2882                           	line	9
  2883                           	
  2884  000704                     l1000:
  2885                           ;ds1990.c: 9: _delay((unsigned long)((70)*(16000000/4000000.0)));
  2886  000704  0E5D               	movlw	93
  2887  000706                     u2357:
  2888  000706  2EE8               decfsz	wreg,f
  2889  000708  D7FE               	goto	u2357
  2890  00070A  F000               	nop
  2891                           
  2892                           	line	10
  2893                           	
  2894  00070C                     l1002:
  2895                           ;ds1990.c: 10: if(!PORTBbits.RB0){
  2896                           	
  2897  00070C  B081               	btfsc	((c:3969)),c,0	;volatile
  2898  00070E  D001               	goto	u171
  2899  000710  D001               	goto	u170
  2900  000712                     u171:
  2901  000712  D00D               	goto	l274
  2902  000714                     u170:
  2903                           	line	11
  2904                           	
  2905  000714                     l1004:
  2906                           ;ds1990.c: 11: _delay((unsigned long)((220)*(16000000/4000000.0)));
  2907  000714  0EDC               	movlw	220
  2908  000716                     u2367:
  2909  000716  F000               	nop
  2910  000718  2EE8               decfsz	wreg,f
  2911  00071A  D7FD               	goto	u2367
  2912                           
  2913                           	line	12
  2914                           	
  2915  00071C                     l1006:
  2916                           ;ds1990.c: 12: if(PORTBbits.RB0){
  2917                           	
  2918  00071C  A081               	btfss	((c:3969)),c,0	;volatile
  2919  00071E  D001               	goto	u181
  2920  000720  D001               	goto	u180
  2921  000722                     u181:
  2922  000722  D005               	goto	l274
  2923  000724                     u180:
  2924                           	line	13
  2925                           	
  2926  000724                     l1008:
  2927                           ;ds1990.c: 13: return 1;
  2928  000724  0E01               	movlw	(01h)&0ffh
  2929  000726  D003               	goto	l274
  2930                           	
  2931  000728                     l1010:
  2932  000728  D002               	goto	l274
  2933                           	line	14
  2934                           	
  2935  00072A                     l273:
  2936  00072A  D001               	goto	l274
  2937                           	line	15
  2938                           	
  2939  00072C                     l272:
  2940  00072C  D000               	goto	l274
  2941                           	line	16
  2942                           	
  2943  00072E                     l271:
  2944                           	line	17
  2945                           	
  2946  00072E                     l274:
  2947  00072E  0012               	return
  2948                           	opt stack 0
  2949                           GLOBAL	__end_of_isPressedDs1990
  2950  000730                     	__end_of_isPressedDs1990:
  2951                           	signat	_isPressedDs1990,89
  2952                           	global	_adc
  2953                           
  2954 ;; *************** function _adc *****************
  2955 ;; Defined at:
  2956 ;;		line 138 in file "mainApp.c"
  2957 ;; Parameters:    Size  Location     Type
  2958 ;;  an              1   17[COMRAM] unsigned char 
  2959 ;; Auto vars:     Size  Location     Type
  2960 ;;		None
  2961 ;; Return value:  Size  Location     Type
  2962 ;;                  2   17[COMRAM] unsigned short 
  2963 ;; Registers used:
  2964 ;;		wreg, status,2, status,0
  2965 ;; Tracked objects:
  2966 ;;		On entry : 0/0
  2967 ;;		On exit  : 0/0
  2968 ;;		Unchanged: 0/0
  2969 ;; Data sizes:     COMRAM   BANK0   BANK1   BANK2   BANK3   BANK4   BANK5
  2970 ;;      Params:         2       0       0       0       0       0       0
  2971 ;;      Locals:         0       0       0       0       0       0       0
  2972 ;;      Temps:          2       0       0       0       0       0       0
  2973 ;;      Totals:         4       0       0       0       0       0       0
  2974 ;;Total ram usage:        4 bytes
  2975 ;; Hardware stack levels used:    1
  2976 ;; Hardware stack levels required when called:    2
  2977 ;; This function calls:
  2978 ;;		Nothing
  2979 ;; This function is called by:
  2980 ;;		_getPowerLine
  2981 ;;		_getDc
  2982 ;;		_getBat
  2983 ;; This function uses a non-reentrant model
  2984 ;;
  2985                           psect	text8,class=CODE,space=0,reloc=2
  2986                           global __ptext8
  2987  000730                     __ptext8:
  2988                           psect	text8
  2989                           	file	"mainApp.c"
  2990                           	line	138
  2991                           	global	__size_of_adc
  2992  0000                     	__size_of_adc	equ	__end_of_adc-_adc
  2993                           	
  2994  000730                     _adc:
  2995                           	opt	stack 27
  2996                           	line	139
  2997                           	
  2998  000730                     l1032:
  2999                           ;mainApp.c: 139: ADCON0 = 0b00000001 | (an << 2);
  3000  000730  4412               	rlncf	((c:adc@an)),c,w
  3001  000732  46E8               	rlncf	wreg
  3002  000734  0BFC               	andlw	(0ffh shl 2) & 0ffh
  3003  000736  0901               	iorlw	low(01h)
  3004  000738  6EC2               	movwf	((c:4034)),c	;volatile
  3005                           	line	140
  3006                           	
  3007  00073A                     l1034:
  3008                           ;mainApp.c: 140: GO = 1;
  3009  00073A  82C2               	bsf	c:(32273/8),(32273)&7	;volatile
  3010                           	line	141
  3011                           ;mainApp.c: 141: while (GO);
  3012  00073C  D000               	goto	l145
  3013                           	
  3014  00073E                     l146:
  3015                           	
  3016  00073E                     l145:
  3017  00073E  B2C2               	btfsc	c:(32273/8),(32273)&7	;volatile
  3018  000740  D001               	goto	u231
  3019  000742  D001               	goto	u230
  3020  000744                     u231:
  3021  000744  D7FC               	goto	l145
  3022  000746                     u230:
  3023  000746  D000               	goto	l1036
  3024                           	
  3025  000748                     l147:
  3026                           	line	142
  3027                           	
  3028  000748                     l1036:
  3029                           ;mainApp.c: 142: return ((ADRESH << 8) | ADRESL);
  3030  000748  50C3               	movf	((c:4035)),c,w	;volatile
  3031  00074A  CFC4 F014          	movff	(c:4036),??_adc+0+0	;volatile
  3032  00074E  6A15               	clrf	(??_adc+0+0+1)&0ffh,c
  3033  000750  C014  F015         	movff	??_adc+0+0,??_adc+0+1
  3034  000754  6A14               	clrf	(??_adc+0+0),c
  3035  000756  1014               	iorwf	(??_adc+0+0),c,w
  3036                           	
  3037  000758  6E12               	movwf	((c:?_adc)),c
  3038  00075A  5015               	movf	(??_adc+0+1),c,w
  3039  00075C  6E13               	movwf	1+((c:?_adc)),c
  3040  00075E  D000               	goto	l148
  3041                           	
  3042  000760                     l1038:
  3043                           	line	143
  3044                           	
  3045  000760                     l148:
  3046  000760  0012               	return
  3047                           	opt stack 0
  3048                           GLOBAL	__end_of_adc
  3049  000762                     	__end_of_adc:
  3050                           	signat	_adc,4218
  3051                           	global	_resetWire
  3052                           
  3053 ;; *************** function _resetWire *****************
  3054 ;; Defined at:
  3055 ;;		line 34 in file "ds1990.c"
  3056 ;; Parameters:    Size  Location     Type
  3057 ;;		None
  3058 ;; Auto vars:     Size  Location     Type
  3059 ;;		None
  3060 ;; Return value:  Size  Location     Type
  3061 ;;		None               void
  3062 ;; Registers used:
  3063 ;;		wreg
  3064 ;; Tracked objects:
  3065 ;;		On entry : 0/0
  3066 ;;		On exit  : 0/0
  3067 ;;		Unchanged: 0/0
  3068 ;; Data sizes:     COMRAM   BANK0   BANK1   BANK2   BANK3   BANK4   BANK5
  3069 ;;      Params:         0       0       0       0       0       0       0
  3070 ;;      Locals:         0       0       0       0       0       0       0
  3071 ;;      Temps:          1       0       0       0       0       0       0
  3072 ;;      Totals:         1       0       0       0       0       0       0
  3073 ;;Total ram usage:        1 bytes
  3074 ;; Hardware stack levels used:    1
  3075 ;; Hardware stack levels required when called:    2
  3076 ;; This function calls:
  3077 ;;		Nothing
  3078 ;; This function is called by:
  3079 ;;		_isPressedDs1990
  3080 ;; This function uses a non-reentrant model
  3081 ;;
  3082                           psect	text9,class=CODE,space=0,reloc=2
  3083                           global __ptext9
  3084  00078A                     __ptext9:
  3085                           psect	text9
  3086                           	file	"ds1990.c"
  3087                           	line	34
  3088                           	global	__size_of_resetWire
  3089  0000                     	__size_of_resetWire	equ	__end_of_resetWire-_resetWire
  3090                           	
  3091  00078A                     _resetWire:
  3092                           	opt	stack 27
  3093                           	line	35
  3094                           	
  3095  00078A                     l1042:
  3096                           ;ds1990.c: 35: PORTBbits.RB0 = 0;
  3097  00078A  9081               	bcf	((c:3969)),c,0	;volatile
  3098                           	line	36
  3099                           ;ds1990.c: 36: TRISBbits.RB0 = 0;
  3100  00078C  9093               	bcf	((c:3987)),c,0	;volatile
  3101                           	line	37
  3102                           ;ds1990.c: 37: PORTBbits.RB0 = 0;
  3103  00078E  9081               	bcf	((c:3969)),c,0	;volatile
  3104                           	line	38
  3105                           	
  3106  000790                     l1044:
  3107                           ;ds1990.c: 38: _delay((unsigned long)((500)*(16000000/4000000.0)));
  3108  000790  0E03               	movlw	3
  3109  000792  6E12               movwf	(??_resetWire+0+0)&0ffh,c,f
  3110  000794  0E97               	movlw	151
  3111  000796                     u2377:
  3112  000796  2EE8               	decfsz	wreg,f
  3113  000798  D7FE               	goto	u2377
  3114  00079A  2E12               	decfsz	(??_resetWire+0+0)&0ffh,c,f
  3115  00079C  D7FC               	goto	u2377
  3116  00079E  D000               	nop2
  3117                           
  3118                           	line	39
  3119                           	
  3120  0007A0                     l1046:
  3121                           ;ds1990.c: 39: TRISBbits.RB0 = 1;
  3122  0007A0  8093               	bsf	((c:3987)),c,0	;volatile
  3123                           	line	40
  3124                           ;ds1990.c: 40: _delay((unsigned long)((8)*(16000000/4000000.0)));
  3125  0007A2  0E0A               	movlw	10
  3126  0007A4                     u2387:
  3127  0007A4  2EE8               decfsz	wreg,f
  3128  0007A6  D7FE               	goto	u2387
  3129  0007A8  D000               	nop2	;nop
  3130                           
  3131                           	line	41
  3132                           	
  3133  0007AA                     l284:
  3134  0007AA  0012               	return
  3135                           	opt stack 0
  3136                           GLOBAL	__end_of_resetWire
  3137  0007AC                     	__end_of_resetWire:
  3138                           	signat	_resetWire,88
  3139                           	global	_getCRC8
  3140                           
  3141 ;; *************** function _getCRC8 *****************
  3142 ;; Defined at:
  3143 ;;		line 80 in file "ds1990.c"
  3144 ;; Parameters:    Size  Location     Type
  3145 ;;  data            2   17[COMRAM] PTR unsigned char 
  3146 ;;		 -> tmValue(8), 
  3147 ;; Auto vars:     Size  Location     Type
  3148 ;;  i               1   21[COMRAM] unsigned char 
  3149 ;;  CRC             1   20[COMRAM] unsigned char 
  3150 ;; Return value:  Size  Location     Type
  3151 ;;                  1    wreg      unsigned char 
  3152 ;; Registers used:
  3153 ;;		wreg, fsr2l, fsr2h, status,2, status,0, tblptrl, tblptrh, tblptru, prodl, prodh
  3154 ;; Tracked objects:
  3155 ;;		On entry : 0/0
  3156 ;;		On exit  : 0/0
  3157 ;;		Unchanged: 0/0
  3158 ;; Data sizes:     COMRAM   BANK0   BANK1   BANK2   BANK3   BANK4   BANK5
  3159 ;;      Params:         2       0       0       0       0       0       0
  3160 ;;      Locals:         2       0       0       0       0       0       0
  3161 ;;      Temps:          1       0       0       0       0       0       0
  3162 ;;      Totals:         5       0       0       0       0       0       0
  3163 ;;Total ram usage:        5 bytes
  3164 ;; Hardware stack levels used:    1
  3165 ;; Hardware stack levels required when called:    2
  3166 ;; This function calls:
  3167 ;;		Nothing
  3168 ;; This function is called by:
  3169 ;;		_writeReadDs1990
  3170 ;; This function uses a non-reentrant model
  3171 ;;
  3172                           psect	text10,class=CODE,space=0,reloc=2
  3173                           global __ptext10
  3174  0005AC                     __ptext10:
  3175                           psect	text10
  3176                           	file	"ds1990.c"
  3177                           	line	80
  3178                           	global	__size_of_getCRC8
  3179  0000                     	__size_of_getCRC8	equ	__end_of_getCRC8-_getCRC8
  3180                           	
  3181  0005AC                     _getCRC8:
  3182                           	opt	stack 27
  3183                           	line	81
  3184                           	
  3185  0005AC                     l1092:
  3186                           ;ds1990.c: 81: char CRC = 0;
  3187  0005AC  6E14               	movwf	(??_getCRC8+0+0)&0ffh,c
  3188  0005AE  0E00               	movlw	low(0)
  3189  0005B0  6E15               	movwf	((c:getCRC8@CRC)),c
  3190  0005B2  5014               	movf	(??_getCRC8+0+0)&0ffh,c,w
  3191                           	line	82
  3192                           ;ds1990.c: 82: for(char i = 0; i < 7; i++){
  3193  0005B4  6E14               	movwf	(??_getCRC8+0+0)&0ffh,c
  3194  0005B6  0E00               	movlw	low(0)
  3195  0005B8  6E16               	movwf	((c:getCRC8@i)),c
  3196  0005BA  5014               	movf	(??_getCRC8+0+0)&0ffh,c,w
  3197                           	
  3198  0005BC                     l1094:
  3199  0005BC  0E06               	movlw	(07h-1)
  3200  0005BE  6416               	cpfsgt	((c:getCRC8@i)),c
  3201  0005C0  D001               	goto	u311
  3202  0005C2  D001               	goto	u310
  3203  0005C4                     u311:
  3204  0005C4  D002               	goto	l1098
  3205  0005C6                     u310:
  3206  0005C6  D01C               	goto	l1104
  3207                           	
  3208  0005C8                     l1096:
  3209  0005C8  D01B               	goto	l1104
  3210                           	
  3211  0005CA                     l300:
  3212                           	line	83
  3213                           	
  3214  0005CA                     l1098:
  3215                           ;ds1990.c: 83: CRC = CRCTAB[CRC ^ data[i]];;
  3216  0005CA  5016               	movf	((c:getCRC8@i)),c,w
  3217  0005CC  0D01               	mullw	01h
  3218  0005CE  50F3               	movf	(prodl),c,w
  3219  0005D0  2412               	addwf	((c:getCRC8@data)),c,w
  3220  0005D2  6ED9               	movwf	c:fsr2l
  3221  0005D4  0E00               	movlw	0
  3222  0005D6  2013               	addwfc	((c:getCRC8@data+1)),c,w
  3223  0005D8  6EDA               	movwf	1+c:fsr2l
  3224  0005DA  50DF               	movf	indf2,w
  3225  0005DC  1815               	xorwf	((c:getCRC8@CRC)),c,w
  3226  0005DE  6E14               	movwf	(??_getCRC8+0+0)&0ffh,c
  3227  0005E0  0EFE               	movlw	low((_CRCTAB))
  3228  0005E2  2414               	addwf	((??_getCRC8+0+0)),c,w
  3229  0005E4  6EF6               	movwf	tblptrl
  3230  0005E6  6AF7               	clrf	tblptrh
  3231  0005E8  0E7E               	movlw	high((_CRCTAB))
  3232  0005EA  22F7               	addwfc	tblptrh
  3233  0005EC  0008               	tblrd	*
  3234                           	
  3235  0005EE  CFF5 F015          	movff	tablat,(c:getCRC8@CRC)
  3236                           	line	82
  3237                           	
  3238  0005F2                     l1100:
  3239  0005F2  2A16               	incf	((c:getCRC8@i)),c
  3240                           	
  3241  0005F4                     l1102:
  3242  0005F4  0E06               	movlw	(07h-1)
  3243  0005F6  6416               	cpfsgt	((c:getCRC8@i)),c
  3244  0005F8  D001               	goto	u321
  3245  0005FA  D001               	goto	u320
  3246  0005FC                     u321:
  3247  0005FC  D7E6               	goto	l1098
  3248  0005FE                     u320:
  3249  0005FE  D000               	goto	l1104
  3250                           	
  3251  000600                     l301:
  3252                           	line	85
  3253                           	
  3254  000600                     l1104:
  3255                           ;ds1990.c: 84: }
  3256                           ;ds1990.c: 85: if(data[7] == CRC)
  3257  000600  EE20 F007          	lfsr	2,07h
  3258  000604  5012               	movf	((c:getCRC8@data)),c,w
  3259  000606  26D9               	addwf	fsr2l
  3260  000608  5013               	movf	((c:getCRC8@data+1)),c,w
  3261  00060A  22DA               	addwfc	fsr2h
  3262  00060C  5015               	movf	((c:getCRC8@CRC)),c,w
  3263  00060E  62DF               	cpfseq	indf2
  3264  000610  D001               	goto	u331
  3265  000612  D001               	goto	u330
  3266  000614                     u331:
  3267  000614  D003               	goto	l1110
  3268  000616                     u330:
  3269                           	line	86
  3270                           	
  3271  000616                     l1106:
  3272                           ;ds1990.c: 86: return 1;
  3273  000616  0E01               	movlw	(01h)&0ffh
  3274  000618  D003               	goto	l303
  3275                           	
  3276  00061A                     l1108:
  3277  00061A  D002               	goto	l303
  3278                           	
  3279  00061C                     l302:
  3280                           	line	87
  3281                           	
  3282  00061C                     l1110:
  3283                           ;ds1990.c: 87: return 0;
  3284  00061C  0E00               	movlw	(0)&0ffh
  3285  00061E  D000               	goto	l303
  3286                           	
  3287  000620                     l1112:
  3288                           	line	88
  3289                           	
  3290  000620                     l303:
  3291  000620  0012               	return
  3292                           	opt stack 0
  3293                           GLOBAL	__end_of_getCRC8
  3294  000622                     	__end_of_getCRC8:
  3295                           	signat	_getCRC8,4217
  3296                           	global	_outByteWire
  3297                           
  3298 ;; *************** function _outByteWire *****************
  3299 ;; Defined at:
  3300 ;;		line 43 in file "ds1990.c"
  3301 ;; Parameters:    Size  Location     Type
  3302 ;;  data            1   17[COMRAM] unsigned char 
  3303 ;; Auto vars:     Size  Location     Type
  3304 ;;  i               2   18[COMRAM] int 
  3305 ;; Return value:  Size  Location     Type
  3306 ;;		None               void
  3307 ;; Registers used:
  3308 ;;		wreg, status,2, status,0
  3309 ;; Tracked objects:
  3310 ;;		On entry : 0/0
  3311 ;;		On exit  : 0/0
  3312 ;;		Unchanged: 0/0
  3313 ;; Data sizes:     COMRAM   BANK0   BANK1   BANK2   BANK3   BANK4   BANK5
  3314 ;;      Params:         1       0       0       0       0       0       0
  3315 ;;      Locals:         2       0       0       0       0       0       0
  3316 ;;      Temps:          0       0       0       0       0       0       0
  3317 ;;      Totals:         3       0       0       0       0       0       0
  3318 ;;Total ram usage:        3 bytes
  3319 ;; Hardware stack levels used:    1
  3320 ;; Hardware stack levels required when called:    2
  3321 ;; This function calls:
  3322 ;;		Nothing
  3323 ;; This function is called by:
  3324 ;;		_writeReadDs1990
  3325 ;; This function uses a non-reentrant model
  3326 ;;
  3327                           psect	text11,class=CODE,space=0,reloc=2
  3328                           global __ptext11
  3329  000698                     __ptext11:
  3330                           psect	text11
  3331                           	file	"ds1990.c"
  3332                           	line	43
  3333                           	global	__size_of_outByteWire
  3334  0000                     	__size_of_outByteWire	equ	__end_of_outByteWire-_outByteWire
  3335                           	
  3336  000698                     _outByteWire:
  3337                           	opt	stack 27
  3338                           	line	44
  3339                           	
  3340  000698                     l1048:
  3341                           ;ds1990.c: 44: for (int i = 0; i < 8; i++){
  3342  000698  0E00               	movlw	high(0)
  3343  00069A  6E14               	movwf	((c:outByteWire@i+1)),c
  3344  00069C  0E00               	movlw	low(0)
  3345  00069E  6E13               	movwf	((c:outByteWire@i)),c
  3346                           	
  3347  0006A0                     l1050:
  3348  0006A0  5014               	movf	((c:outByteWire@i+1)),c,w
  3349  0006A2  0A80               	xorlw	80h
  3350  0006A4  0F80               	addlw	-((0)^80h)
  3351  0006A6  0E08               	movlw	08h
  3352  0006A8  B4D8               	btfsc	status,2
  3353  0006AA  5C13               	subwf	((c:outByteWire@i)),c,w
  3354  0006AC  A0D8               	btfss	status,0
  3355  0006AE  D001               	goto	u241
  3356  0006B0  D001               	goto	u240
  3357  0006B2                     u241:
  3358  0006B2  D002               	goto	l287
  3359  0006B4                     u240:
  3360  0006B4  D020               	goto	l291
  3361                           	
  3362  0006B6                     l1052:
  3363  0006B6  D01F               	goto	l291
  3364                           	
  3365  0006B8                     l287:
  3366                           	line	45
  3367                           ;ds1990.c: 45: TRISBbits.RB0=0;
  3368  0006B8  9093               	bcf	((c:3987)),c,0	;volatile
  3369                           	line	46
  3370                           ;ds1990.c: 46: PORTBbits.RB0=0;
  3371  0006BA  9081               	bcf	((c:3969)),c,0	;volatile
  3372                           	line	47
  3373                           ;ds1990.c: 47: if (data & 0x01){
  3374                           	
  3375  0006BC  A012               	btfss	((c:outByteWire@data)),c,(0)&7
  3376  0006BE  D001               	goto	u251
  3377  0006C0  D001               	goto	u250
  3378  0006C2                     u251:
  3379  0006C2  D002               	goto	l289
  3380  0006C4                     u250:
  3381                           	line	48
  3382                           	
  3383  0006C4                     l1054:
  3384                           ;ds1990.c: 48: TRISBbits.RB0=1;
  3385  0006C4  8093               	bsf	((c:3987)),c,0	;volatile
  3386                           	line	49
  3387                           ;ds1990.c: 49: }else{
  3388  0006C6  D003               	goto	l1056
  3389                           	
  3390  0006C8                     l289:
  3391                           	line	50
  3392                           ;ds1990.c: 50: TRISBbits.RB0=0;
  3393  0006C8  9093               	bcf	((c:3987)),c,0	;volatile
  3394                           	line	51
  3395                           ;ds1990.c: 51: PORTBbits.RB0=0;
  3396  0006CA  9081               	bcf	((c:3969)),c,0	;volatile
  3397  0006CC  D000               	goto	l1056
  3398                           	line	52
  3399                           	
  3400  0006CE                     l290:
  3401                           	line	53
  3402                           	
  3403  0006CE                     l1056:
  3404                           ;ds1990.c: 52: }
  3405                           ;ds1990.c: 53: _delay((unsigned long)((50)*(16000000/4000000.0)));
  3406  0006CE  0E42               	movlw	66
  3407  0006D0                     u2397:
  3408  0006D0  2EE8               decfsz	wreg,f
  3409  0006D2  D7FE               	goto	u2397
  3410  0006D4  D000               	nop2	;nop
  3411                           
  3412                           	line	54
  3413                           	
  3414  0006D6                     l1058:
  3415                           ;ds1990.c: 54: data >> = 0x01;
  3416  0006D6  90D8               	bcf status,0
  3417  0006D8  3212               	rrcf	((c:outByteWire@data)),c
  3418                           
  3419                           	line	55
  3420                           	
  3421  0006DA                     l1060:
  3422                           ;ds1990.c: 55: TRISBbits.RB0=1;
  3423  0006DA  8093               	bsf	((c:3987)),c,0	;volatile
  3424                           	line	44
  3425  0006DC  4A13               	infsnz	((c:outByteWire@i)),c
  3426  0006DE  2A14               	incf	((c:outByteWire@i+1)),c
  3427                           	
  3428  0006E0                     l1062:
  3429  0006E0  5014               	movf	((c:outByteWire@i+1)),c,w
  3430  0006E2  0A80               	xorlw	80h
  3431  0006E4  0F80               	addlw	-((0)^80h)
  3432  0006E6  0E08               	movlw	08h
  3433  0006E8  B4D8               	btfsc	status,2
  3434  0006EA  5C13               	subwf	((c:outByteWire@i)),c,w
  3435  0006EC  A0D8               	btfss	status,0
  3436  0006EE  D001               	goto	u261
  3437  0006F0  D001               	goto	u260
  3438  0006F2                     u261:
  3439  0006F2  D7E2               	goto	l287
  3440  0006F4                     u260:
  3441  0006F4  D000               	goto	l291
  3442                           	
  3443  0006F6                     l288:
  3444                           	line	57
  3445                           	
  3446  0006F6                     l291:
  3447  0006F6  0012               	return
  3448                           	opt stack 0
  3449                           GLOBAL	__end_of_outByteWire
  3450  0006F8                     	__end_of_outByteWire:
  3451                           	signat	_outByteWire,4216
  3452                           	global	_readByteWire
  3453                           
  3454 ;; *************** function _readByteWire *****************
  3455 ;; Defined at:
  3456 ;;		line 59 in file "ds1990.c"
  3457 ;; Parameters:    Size  Location     Type
  3458 ;;		None
  3459 ;; Auto vars:     Size  Location     Type
  3460 ;;  i               2   19[COMRAM] int 
  3461 ;;  t               1   18[COMRAM] unsigned char 
  3462 ;; Return value:  Size  Location     Type
  3463 ;;                  1    wreg      unsigned char 
  3464 ;; Registers used:
  3465 ;;		wreg, status,2, status,0
  3466 ;; Tracked objects:
  3467 ;;		On entry : 0/0
  3468 ;;		On exit  : 0/0
  3469 ;;		Unchanged: 0/0
  3470 ;; Data sizes:     COMRAM   BANK0   BANK1   BANK2   BANK3   BANK4   BANK5
  3471 ;;      Params:         0       0       0       0       0       0       0
  3472 ;;      Locals:         3       0       0       0       0       0       0
  3473 ;;      Temps:          1       0       0       0       0       0       0
  3474 ;;      Totals:         4       0       0       0       0       0       0
  3475 ;;Total ram usage:        4 bytes
  3476 ;; Hardware stack levels used:    1
  3477 ;; Hardware stack levels required when called:    2
  3478 ;; This function calls:
  3479 ;;		Nothing
  3480 ;; This function is called by:
  3481 ;;		_writeReadDs1990
  3482 ;; This function uses a non-reentrant model
  3483 ;;
  3484                           psect	text12,class=CODE,space=0,reloc=2
  3485                           global __ptext12
  3486  000622                     __ptext12:
  3487                           psect	text12
  3488                           	file	"ds1990.c"
  3489                           	line	59
  3490                           	global	__size_of_readByteWire
  3491  0000                     	__size_of_readByteWire	equ	__end_of_readByteWire-_readByteWire
  3492                           	
  3493  000622                     _readByteWire:
  3494                           	opt	stack 27
  3495                           	line	61
  3496                           	
  3497  000622                     l1064:
  3498                           ;ds1990.c: 60: unsigned char t;
  3499                           ;ds1990.c: 61: for(int i = 0; i < 8; i++){
  3500  000622  0E00               	movlw	high(0)
  3501  000624  6E15               	movwf	((c:readByteWire@i+1)),c
  3502  000626  0E00               	movlw	low(0)
  3503  000628  6E14               	movwf	((c:readByteWire@i)),c
  3504                           	
  3505  00062A                     l1066:
  3506  00062A  5015               	movf	((c:readByteWire@i+1)),c,w
  3507  00062C  0A80               	xorlw	80h
  3508  00062E  0F80               	addlw	-((0)^80h)
  3509  000630  0E08               	movlw	08h
  3510  000632  B4D8               	btfsc	status,2
  3511  000634  5C14               	subwf	((c:readByteWire@i)),c,w
  3512  000636  A0D8               	btfss	status,0
  3513  000638  D001               	goto	u271
  3514  00063A  D001               	goto	u270
  3515  00063C                     u271:
  3516  00063C  D002               	goto	l294
  3517  00063E                     u270:
  3518  00063E  D029               	goto	l1088
  3519                           	
  3520  000640                     l1068:
  3521  000640  D028               	goto	l1088
  3522                           	
  3523  000642                     l294:
  3524                           	line	62
  3525                           ;ds1990.c: 62: TRISBbits.RB0=0;
  3526  000642  9093               	bcf	((c:3987)),c,0	;volatile
  3527                           	line	63
  3528                           ;ds1990.c: 63: PORTBbits.RB0=0;
  3529  000644  9081               	bcf	((c:3969)),c,0	;volatile
  3530                           	line	64
  3531                           ;ds1990.c: 64: _delay((unsigned long)((1)*(16000000/4000000.0)));
  3532  000646  D000               		nop2	;2 cycle nop
  3533  000648  D000               	nop2	;2 cycle nop
  3534                           
  3535                           	line	65
  3536                           	
  3537  00064A                     l1070:
  3538                           ;ds1990.c: 65: t >>= 0x01;
  3539  00064A  90D8               	bcf status,0
  3540  00064C  3213               	rrcf	((c:readByteWire@t)),c
  3541                           
  3542                           	line	66
  3543                           	
  3544  00064E                     l1072:
  3545                           ;ds1990.c: 66: TRISBbits.RB0=1;
  3546  00064E  8093               	bsf	((c:3987)),c,0	;volatile
  3547                           	line	67
  3548                           	
  3549  000650                     l1074:
  3550                           ;ds1990.c: 67: _delay((unsigned long)((10)*(16000000/4000000.0)));
  3551  000650  0E0D               	movlw	13
  3552  000652                     u2407:
  3553  000652  2EE8               decfsz	wreg,f
  3554  000654  D7FE               	goto	u2407
  3555  000656  F000               	nop
  3556                           
  3557                           	line	68
  3558                           	
  3559  000658                     l1076:
  3560                           ;ds1990.c: 68: PORTBbits.RB0 = PORTBbits.RB0;
  3561  000658  CF81 F012          	movff	(c:3969),??_readByteWire+0+0	;volatile
  3562  00065C  9081               	bcf	((c:3969)),c,0	;volatile
  3563  00065E  A012               	btfss	(??_readByteWire+0+0)&0ffh,c,0
  3564  000660  D001               	bra	u285
  3565  000662  8081               	bsf	((c:3969)),c,0	;volatile
  3566  000664                     	u285:
  3567                           	line	69
  3568                           	
  3569  000664                     l1078:
  3570                           ;ds1990.c: 69: if(PORTBbits.RB0){
  3571                           	
  3572  000664  A081               	btfss	((c:3969)),c,0	;volatile
  3573  000666  D001               	goto	u291
  3574  000668  D001               	goto	u290
  3575  00066A                     u291:
  3576  00066A  D002               	goto	l1082
  3577  00066C                     u290:
  3578                           	line	70
  3579                           	
  3580  00066C                     l1080:
  3581                           ;ds1990.c: 70: t |= 0x80;
  3582  00066C  8E13               	bsf	(0+(7/8)+(c:readByteWire@t)),c,(7)&7
  3583  00066E  D000               	goto	l1082
  3584                           	line	71
  3585                           	
  3586  000670                     l296:
  3587                           	line	72
  3588                           	
  3589  000670                     l1082:
  3590                           ;ds1990.c: 71: }
  3591                           ;ds1990.c: 72: _delay((unsigned long)((100)*(16000000/4000000.0)));
  3592  000670  0E85               	movlw	133
  3593  000672                     u2417:
  3594  000672  2EE8               decfsz	wreg,f
  3595  000674  D7FE               	goto	u2417
  3596  000676  F000               	nop
  3597                           
  3598                           	line	61
  3599                           	
  3600  000678                     l1084:
  3601  000678  4A14               	infsnz	((c:readByteWire@i)),c
  3602  00067A  2A15               	incf	((c:readByteWire@i+1)),c
  3603                           	
  3604  00067C                     l1086:
  3605  00067C  5015               	movf	((c:readByteWire@i+1)),c,w
  3606  00067E  0A80               	xorlw	80h
  3607  000680  0F80               	addlw	-((0)^80h)
  3608  000682  0E08               	movlw	08h
  3609  000684  B4D8               	btfsc	status,2
  3610  000686  5C14               	subwf	((c:readByteWire@i)),c,w
  3611  000688  A0D8               	btfss	status,0
  3612  00068A  D001               	goto	u301
  3613  00068C  D001               	goto	u300
  3614  00068E                     u301:
  3615  00068E  D7D9               	goto	l294
  3616  000690                     u300:
  3617  000690  D000               	goto	l1088
  3618                           	
  3619  000692                     l295:
  3620                           	line	74
  3621                           	
  3622  000692                     l1088:
  3623                           ;ds1990.c: 73: }
  3624                           ;ds1990.c: 74: return t;
  3625  000692  5013               	movf	((c:readByteWire@t)),c,w
  3626  000694  D000               	goto	l297
  3627                           	
  3628  000696                     l1090:
  3629                           	line	75
  3630                           	
  3631  000696                     l297:
  3632  000696  0012               	return
  3633                           	opt stack 0
  3634                           GLOBAL	__end_of_readByteWire
  3635  000698                     	__end_of_readByteWire:
  3636                           	signat	_readByteWire,89
  3637                           	global	_uart
  3638                           
  3639 ;; *************** function _uart *****************
  3640 ;; Defined at:
  3641 ;;		line 7 in file "interruptes.c"
  3642 ;; Parameters:    Size  Location     Type
  3643 ;;		None
  3644 ;; Auto vars:     Size  Location     Type
  3645 ;;  nData           1   16[COMRAM] unsigned char 
  3646 ;;  indexInputDa    1   15[COMRAM] unsigned char 
  3647 ;; Return value:  Size  Location     Type
  3648 ;;		None               void
  3649 ;; Registers used:
  3650 ;;		wreg, status,2, status,0, cstack
  3651 ;; Tracked objects:
  3652 ;;		On entry : 0/0
  3653 ;;		On exit  : 0/0
  3654 ;;		Unchanged: 0/0
  3655 ;; Data sizes:     COMRAM   BANK0   BANK1   BANK2   BANK3   BANK4   BANK5
  3656 ;;      Params:         0       0       0       0       0       0       0
  3657 ;;      Locals:         2       0       0       0       0       0       0
  3658 ;;      Temps:         15       0       0       0       0       0       0
  3659 ;;      Totals:        17       0       0       0       0       0       0
  3660 ;;Total ram usage:       17 bytes
  3661 ;; Hardware stack levels used:    1
  3662 ;; Hardware stack levels required when called:    1
  3663 ;; This function calls:
  3664 ;;		_setTX
  3665 ;;		i2_setRX
  3666 ;; This function is called by:
  3667 ;;		Interrupt level 2
  3668 ;; This function uses a non-reentrant model
  3669 ;;
  3670                           psect	intcode,class=CODE,space=0,reloc=2
  3671                           global __pintcode
  3672  000008                     __pintcode:
  3673                           psect	intcode
  3674                           	file	"interruptes.c"
  3675                           	line	7
  3676                           	global	__size_of_uart
  3677  0000                     	__size_of_uart	equ	__end_of_uart-_uart
  3678                           	
  3679  000008                     _uart:
  3680                           	opt	stack 27
  3681  000008  CFFA F002          	movff	pclat+0,??_uart+1
  3682  00000C  CFFB F003          	movff	pclat+1,??_uart+2
  3683  000010  CFE9 F004          	movff	fsr0l+0,??_uart+3
  3684                           	global	int_func
  3685  000014  ED0E  F000         	call	int_func,f	;refresh shadow registers
  3686                           psect	intcode_body,class=CODE,space=0,reloc=2
  3687                           global __pintcode_body
  3688  00001C                     __pintcode_body:
  3689  00001C                     int_func:
  3690                           
  3691  00001C  0006               	pop	; remove dummy address from shadow register refresh
  3692  00001E  CFEA F005          	movff	fsr0h+0,??_uart+4
  3693  000022  CFE1 F006          	movff	fsr1l+0,??_uart+5
  3694  000026  CFE2 F007          	movff	fsr1h+0,??_uart+6
  3695  00002A  CFD9 F008          	movff	fsr2l+0,??_uart+7
  3696  00002E  CFDA F009          	movff	fsr2h+0,??_uart+8
  3697  000032  CFF3 F00A          	movff	prodl+0,??_uart+9
  3698  000036  CFF4 F00B          	movff	prodh+0,??_uart+10
  3699  00003A  CFF6 F00C          	movff	tblptrl+0,??_uart+11
  3700  00003E  CFF7 F00D          	movff	tblptrh+0,??_uart+12
  3701  000042  CFF8 F00E          	movff	tblptru+0,??_uart+13
  3702  000046  CFF5 F00F          	movff	tablat+0,??_uart+14
  3703                           	line	11
  3704                           	
  3705  00004A                     i2l2282:
  3706                           ;interruptes.c: 8: unsigned char nData;
  3707                           ;interruptes.c: 9: unsigned char indexInputData;
  3708                           ;interruptes.c: 11: if(TMR0IF){
  3709  00004A  A4F2               	btfss	c:(32658/8),(32658)&7	;volatile
  3710  00004C  D001               	goto	i2u215_41
  3711  00004E  D001               	goto	i2u215_40
  3712  000050                     i2u215_41:
  3713  000050  D021               	goto	i2l2298
  3714  000052                     i2u215_40:
  3715                           	line	12
  3716                           	
  3717  000052                     i2l2284:
  3718                           ;interruptes.c: 12: TMR0IF = 0;
  3719  000052  94F2               	bcf	c:(32658/8),(32658)&7	;volatile
  3720                           	line	13
  3721                           	
  3722  000054                     i2l2286:
  3723                           ;interruptes.c: 13: TMR0 = 0xB1F0;
  3724  000054  0EB1               	movlw	high(0B1F0h)
  3725  000056  6ED7               	movwf	((c:4054+1)),c	;volatile
  3726  000058  0EF0               	movlw	low(0B1F0h)
  3727  00005A  6ED6               	movwf	((c:4054)),c	;volatile
  3728                           	line	14
  3729                           	
  3730  00005C                     i2l2288:
  3731                           ;interruptes.c: 14: mSec++;
  3732  00005C  2A27               	incf	((c:_mSec)),c
  3733                           	line	16
  3734                           	
  3735  00005E                     i2l2290:
  3736                           ;interruptes.c: 16: if(mSec == 100){
  3737  00005E  5027               	movf	((c:_mSec)),c,w
  3738  000060  0A64               	xorlw	100
  3739                           
  3740  000062  A4D8               	btfss	status,2
  3741  000064  D001               	goto	i2u216_41
  3742  000066  D001               	goto	i2u216_40
  3743  000068                     i2u216_41:
  3744  000068  D015               	goto	i2l2298
  3745  00006A                     i2u216_40:
  3746                           	line	17
  3747                           	
  3748  00006A                     i2l2292:
  3749                           ;interruptes.c: 17: sec++;
  3750  00006A  2A29               	incf	((c:_sec)),c
  3751                           	line	18
  3752                           	
  3753  00006C                     i2l2294:
  3754                           ;interruptes.c: 18: if(sec == 60){
  3755  00006C  5029               	movf	((c:_sec)),c,w
  3756  00006E  0A3C               	xorlw	60
  3757                           
  3758  000070  A4D8               	btfss	status,2
  3759  000072  D001               	goto	i2u217_41
  3760  000074  D001               	goto	i2u217_40
  3761  000076                     i2u217_41:
  3762  000076  D008               	goto	i2l205
  3763  000078                     i2u217_40:
  3764                           	line	19
  3765                           	
  3766  000078                     i2l2296:
  3767                           ;interruptes.c: 19: shunt = 1;
  3768  000078  6E01               	movwf	(??_uart+0+0)&0ffh,c
  3769  00007A  0E01               	movlw	low(01h)
  3770  00007C  6E2A               	movwf	((c:_shunt)),c
  3771  00007E  5001               	movf	(??_uart+0+0)&0ffh,c,w
  3772                           	line	20
  3773                           ;interruptes.c: 20: sec = 0;
  3774  000080  6E01               	movwf	(??_uart+0+0)&0ffh,c
  3775  000082  0E00               	movlw	low(0)
  3776  000084  6E29               	movwf	((c:_sec)),c
  3777  000086  5001               	movf	(??_uart+0+0)&0ffh,c,w
  3778                           	line	21
  3779                           	
  3780  000088                     i2l205:
  3781                           	line	22
  3782                           ;interruptes.c: 21: }
  3783                           ;interruptes.c: 22: mSec = 0;
  3784  000088  6E01               	movwf	(??_uart+0+0)&0ffh,c
  3785  00008A  0E00               	movlw	low(0)
  3786  00008C  6E27               	movwf	((c:_mSec)),c
  3787  00008E  5001               	movf	(??_uart+0+0)&0ffh,c,w
  3788  000090  D001               	goto	i2l2298
  3789                           	line	23
  3790                           	
  3791  000092                     i2l204:
  3792  000092  D000               	goto	i2l2298
  3793                           	line	24
  3794                           	
  3795  000094                     i2l203:
  3796                           	line	27
  3797                           	
  3798  000094                     i2l2298:
  3799                           ;interruptes.c: 23: }
  3800                           ;interruptes.c: 24: }
  3801                           ;interruptes.c: 27: if(RCIF){
  3802  000094  AA9E               	btfss	c:(31989/8),(31989)&7	;volatile
  3803  000096  D001               	goto	i2u218_41
  3804  000098  D001               	goto	i2u218_40
  3805  00009A                     i2u218_41:
  3806  00009A  D08A               	goto	i2l206
  3807  00009C                     i2u218_40:
  3808                           	line	28
  3809                           	
  3810  00009C                     i2l2300:
  3811                           ;interruptes.c: 28: if((RCSTAbits.OERR | RCSTAbits.FERR) > 0){
  3812  00009C  30AB               	rrcf	((c:4011)),c,w	;volatile
  3813  00009E  32E8               	rrcf	wreg,f
  3814  0000A0  0B01               	andlw	(1<<1)-1
  3815  0000A2  6E01               	movwf	(??_uart+0+0)&0ffh,c
  3816  0000A4  30AB               	rrcf	((c:4011)),c,w	;volatile
  3817  0000A6  0B01               	andlw	(1<<1)-1
  3818  0000A8  1001               	iorwf	((??_uart+0+0)),c,w
  3819  0000AA  0900               	iorlw	0
  3820  0000AC  B4D8               	btfsc	status,2
  3821  0000AE  D001               	goto	i2u219_41
  3822  0000B0  D001               	goto	i2u219_40
  3823  0000B2                     i2u219_41:
  3824  0000B2  D006               	goto	i2l207
  3825  0000B4                     i2u219_40:
  3826                           	line	29
  3827                           	
  3828  0000B4                     i2l2302:
  3829                           ;interruptes.c: 29: RCSTAbits.CREN = 0;
  3830  0000B4  98AB               	bcf	((c:4011)),c,4	;volatile
  3831                           	line	30
  3832                           	
  3833  0000B6                     i2l2304:
  3834                           ;interruptes.c: 30: WREG = RCREG;
  3835  0000B6  50AE               	movf	((c:4014)),c,w	;volatile
  3836                           	line	31
  3837                           ;interruptes.c: 31: WREG = RCREG;
  3838  0000B8  50AE               	movf	((c:4014)),c,w	;volatile
  3839                           	line	32
  3840                           	
  3841  0000BA                     i2l2306:
  3842                           ;interruptes.c: 32: RCSTAbits.CREN = 1;
  3843  0000BA  88AB               	bsf	((c:4011)),c,4	;volatile
  3844  0000BC  D101               	goto	i2l208
  3845                           	line	33
  3846                           	
  3847  0000BE                     i2l2308:
  3848                           ;interruptes.c: 33: return;
  3849  0000BE  D100               	goto	i2l208
  3850                           	line	34
  3851                           	
  3852  0000C0                     i2l207:
  3853                           	line	35
  3854                           ;interruptes.c: 34: }
  3855                           ;interruptes.c: 35: nData = RCREG;
  3856  0000C0  CFAE F011          	movff	(c:4014),(c:uart@nData)	;volatile
  3857                           	line	37
  3858                           	
  3859  0000C4                     i2l2310:
  3860                           ;interruptes.c: 37: if(nData == 0x06){
  3861  0000C4  5011               	movf	((c:uart@nData)),c,w
  3862  0000C6  0A06               	xorlw	6
  3863                           
  3864  0000C8  A4D8               	btfss	status,2
  3865  0000CA  D001               	goto	i2u220_41
  3866  0000CC  D001               	goto	i2u220_40
  3867  0000CE                     i2u220_41:
  3868  0000CE  D00B               	goto	i2l2318
  3869  0000D0                     i2u220_40:
  3870                           	line	38
  3871                           	
  3872  0000D0                     i2l2312:
  3873                           ;interruptes.c: 38: dmcuWoR = 0;
  3874  0000D0  6E01               	movwf	(??_uart+0+0)&0ffh,c
  3875  0000D2  0E00               	movlw	low(0)
  3876  0000D4  6E26               	movwf	((c:_dmcuWoR)),c
  3877  0000D6  5001               	movf	(??_uart+0+0)&0ffh,c,w
  3878                           	line	39
  3879                           ;interruptes.c: 39: indexInputData = 0;
  3880  0000D8  6E01               	movwf	(??_uart+0+0)&0ffh,c
  3881  0000DA  0E00               	movlw	low(0)
  3882  0000DC  6E10               	movwf	((c:uart@indexInputData)),c
  3883  0000DE  5001               	movf	(??_uart+0+0)&0ffh,c,w
  3884  0000E0  D0EF               	goto	i2l208
  3885                           	line	40
  3886                           	
  3887  0000E2                     i2l2314:
  3888                           ;interruptes.c: 40: return;
  3889  0000E2  D0EE               	goto	i2l208
  3890                           	line	41
  3891                           	
  3892  0000E4                     i2l2316:
  3893                           ;interruptes.c: 41: }else if(nData == 0x86){
  3894  0000E4  D00C               	goto	i2l210
  3895                           	
  3896  0000E6                     i2l209:
  3897                           	
  3898  0000E6                     i2l2318:
  3899  0000E6  5011               	movf	((c:uart@nData)),c,w
  3900  0000E8  0A86               	xorlw	134
  3901                           
  3902  0000EA  A4D8               	btfss	status,2
  3903  0000EC  D001               	goto	i2u221_41
  3904  0000EE  D001               	goto	i2u221_40
  3905  0000F0                     i2u221_41:
  3906  0000F0  D006               	goto	i2l210
  3907  0000F2                     i2u221_40:
  3908                           	line	42
  3909                           	
  3910  0000F2                     i2l2320:
  3911                           ;interruptes.c: 42: dmcuWoR = 1;
  3912  0000F2  6E01               	movwf	(??_uart+0+0)&0ffh,c
  3913  0000F4  0E01               	movlw	low(01h)
  3914  0000F6  6E26               	movwf	((c:_dmcuWoR)),c
  3915  0000F8  5001               	movf	(??_uart+0+0)&0ffh,c,w
  3916  0000FA  D0E2               	goto	i2l208
  3917                           	line	43
  3918                           	
  3919  0000FC                     i2l2322:
  3920                           ;interruptes.c: 43: return;
  3921  0000FC  D0E1               	goto	i2l208
  3922                           	line	44
  3923                           	
  3924  0000FE                     i2l211:
  3925                           	line	46
  3926                           	
  3927  0000FE                     i2l210:
  3928                           ;interruptes.c: 44: }
  3929                           ;interruptes.c: 46: if(dmcuWoR == 0){
  3930  0000FE  6626               	tstfsz	((c:_dmcuWoR)),c
  3931  000100  D001               	goto	i2u222_41
  3932  000102  D001               	goto	i2u222_40
  3933  000104                     i2u222_41:
  3934  000104  D031               	goto	i2l2336
  3935  000106                     i2u222_40:
  3936                           	line	47
  3937                           	
  3938  000106                     i2l2324:
  3939                           ;interruptes.c: 47: if(1 == indexInputData++){
  3940  000106  2A10               	incf	((c:uart@indexInputData)),c
  3941  000108  5010               	movf	((c:uart@indexInputData))&0ffh,w
  3942  00010A  0A02               	xorlw	2
  3943                           
  3944  00010C  A4D8               	btfss	status,2
  3945  00010E  D001               	goto	i2u223_41
  3946  000110  D001               	goto	i2u223_40
  3947  000112                     i2u223_41:
  3948  000112  D01C               	goto	i2l2328
  3949  000114                     i2u223_40:
  3950                           	line	49
  3951                           	
  3952  000114                     i2l2326:
  3953                           ;interruptes.c: 49: relay.as_byte = nData;
  3954  000114  C011  F028         	movff	(c:uart@nData),(c:_relay)
  3955                           	line	50
  3956                           ;interruptes.c: 50: PORTBbits.RB5 = relay.error;
  3957  000118  A028               	btfss	((c:_relay)),c,0
  3958  00011A  D002               	bra	i2u224_45
  3959  00011C  8A81               	bsf	((c:3969)),c,5	;volatile
  3960  00011E  D001               	bra	i2u224_47
  3961  000120                     	i2u224_45:	
  3962  000120  9A81               	bcf	((c:3969)),c,5	;volatile
  3963  000122                     	i2u224_47:
  3964                           	line	51
  3965                           ;interruptes.c: 51: PORTCbits.RC3 = relay.vnim;
  3966  000122  A228               	btfss	((c:_relay)),c,1
  3967  000124  D002               	bra	i2u225_45
  3968  000126  8682               	bsf	((c:3970)),c,3	;volatile
  3969  000128  D001               	bra	i2u225_47
  3970  00012A                     	i2u225_45:	
  3971  00012A  9682               	bcf	((c:3970)),c,3	;volatile
  3972  00012C                     	i2u225_47:
  3973                           	line	52
  3974                           ;interruptes.c: 52: PORTCbits.RC2 = relay.pozar;
  3975  00012C  A428               	btfss	((c:_relay)),c,2
  3976  00012E  D002               	bra	i2u226_45
  3977  000130  8482               	bsf	((c:3970)),c,2	;volatile
  3978  000132  D001               	bra	i2u226_47
  3979  000134                     	i2u226_45:	
  3980  000134  9482               	bcf	((c:3970)),c,2	;volatile
  3981  000136                     	i2u226_47:
  3982                           	line	53
  3983                           ;interruptes.c: 53: PORTCbits.RC1 = relay.aspt;
  3984  000136  A628               	btfss	((c:_relay)),c,3
  3985  000138  D002               	bra	i2u227_45
  3986  00013A  8282               	bsf	((c:3970)),c,1	;volatile
  3987  00013C  D001               	bra	i2u227_47
  3988  00013E                     	i2u227_45:	
  3989  00013E  9282               	bcf	((c:3970)),c,1	;volatile
  3990  000140                     	i2u227_47:
  3991                           	line	54
  3992                           ;interruptes.c: 54: PORTCbits.RC0 = relay.pozps;
  3993  000140  A828               	btfss	((c:_relay)),c,4
  3994  000142  D002               	bra	i2u228_45
  3995  000144  8082               	bsf	((c:3970)),c,0	;volatile
  3996  000146  D001               	bra	i2u228_47
  3997  000148                     	i2u228_45:	
  3998  000148  9082               	bcf	((c:3970)),c,0	;volatile
  3999  00014A                     	i2u228_47:
  4000  00014A  D000               	goto	i2l2328
  4001                           	line	55
  4002                           	
  4003  00014C                     i2l213:
  4004                           	line	56
  4005                           	
  4006  00014C                     i2l2328:
  4007                           ;interruptes.c: 55: }
  4008                           ;interruptes.c: 56: if(indexInputData == 2){
  4009  00014C  5010               	movf	((c:uart@indexInputData)),c,w
  4010  00014E  0A02               	xorlw	2
  4011                           
  4012  000150  A4D8               	btfss	status,2
  4013  000152  D001               	goto	i2u229_41
  4014  000154  D001               	goto	i2u229_40
  4015  000156                     i2u229_41:
  4016  000156  D0B4               	goto	i2l208
  4017  000158                     i2u229_40:
  4018                           	line	57
  4019                           	
  4020  000158                     i2l2330:
  4021                           ;interruptes.c: 57: indexInputData = 0;
  4022  000158  6E01               	movwf	(??_uart+0+0)&0ffh,c
  4023  00015A  0E00               	movlw	low(0)
  4024  00015C  6E10               	movwf	((c:uart@indexInputData)),c
  4025  00015E  5001               	movf	(??_uart+0+0)&0ffh,c,w
  4026  000160  D0AF               	goto	i2l208
  4027                           	line	58
  4028                           	
  4029  000162                     i2l214:
  4030  000162  D0AE               	goto	i2l208
  4031                           	line	59
  4032                           	
  4033  000164                     i2l2332:
  4034                           ;interruptes.c: 58: }
  4035                           ;interruptes.c: 59: return;
  4036  000164  D0AD               	goto	i2l208
  4037                           	line	60
  4038                           	
  4039  000166                     i2l2334:
  4040                           ;interruptes.c: 60: }else if(dmcuWoR == 1){
  4041  000166  D024               	goto	i2l206
  4042                           	
  4043  000168                     i2l212:
  4044                           	
  4045  000168                     i2l2336:
  4046  000168  0426               	decf	((c:_dmcuWoR)),c,w
  4047                           
  4048  00016A  A4D8               	btfss	status,2
  4049  00016C  D001               	goto	i2u230_41
  4050  00016E  D001               	goto	i2u230_40
  4051  000170                     i2u230_41:
  4052  000170  D01F               	goto	i2l206
  4053  000172                     i2u230_40:
  4054                           	line	62
  4055                           	
  4056  000172                     i2l2338:
  4057                           ;interruptes.c: 62: if(nData == 1){
  4058  000172  0411               	decf	((c:uart@nData)),c,w
  4059                           
  4060  000174  A4D8               	btfss	status,2
  4061  000176  D001               	goto	i2u231_41
  4062  000178  D001               	goto	i2u231_40
  4063  00017A                     i2u231_41:
  4064  00017A  D009               	goto	i2l2348
  4065  00017C                     i2u231_40:
  4066                           	line	64
  4067                           	
  4068  00017C                     i2l2340:
  4069                           ;interruptes.c: 64: setTX();
  4070  00017C  ECF1  F003         	call	_setTX	;wreg free
  4071                           	line	65
  4072                           	
  4073  000180                     i2l2342:
  4074                           ;interruptes.c: 65: indexOutByte = 1;
  4075  000180  6E01               	movwf	(??_uart+0+0)&0ffh,c
  4076  000182  0E01               	movlw	low(01h)
  4077  000184  6E33               	movwf	((c:_indexOutByte)),c
  4078  000186  5001               	movf	(??_uart+0+0)&0ffh,c,w
  4079  000188  D09B               	goto	i2l208
  4080                           	line	66
  4081                           	
  4082  00018A                     i2l2344:
  4083                           ;interruptes.c: 66: return;
  4084  00018A  D09A               	goto	i2l208
  4085                           	line	67
  4086                           	
  4087  00018C                     i2l2346:
  4088                           ;interruptes.c: 67: }else if(nData == 2){
  4089  00018C  D011               	goto	i2l206
  4090                           	
  4091  00018E                     i2l217:
  4092                           	
  4093  00018E                     i2l2348:
  4094  00018E  5011               	movf	((c:uart@nData)),c,w
  4095  000190  0A02               	xorlw	2
  4096                           
  4097  000192  A4D8               	btfss	status,2
  4098  000194  D001               	goto	i2u232_41
  4099  000196  D001               	goto	i2u232_40
  4100  000198                     i2u232_41:
  4101  000198  D00B               	goto	i2l206
  4102  00019A                     i2u232_40:
  4103                           	line	69
  4104                           	
  4105  00019A                     i2l2350:
  4106                           ;interruptes.c: 69: setTX();
  4107  00019A  ECF1  F003         	call	_setTX	;wreg free
  4108                           	line	70
  4109                           	
  4110  00019E                     i2l2352:
  4111                           ;interruptes.c: 70: indexOutByte = 13;
  4112  00019E  6E01               	movwf	(??_uart+0+0)&0ffh,c
  4113  0001A0  0E0D               	movlw	low(0Dh)
  4114  0001A2  6E33               	movwf	((c:_indexOutByte)),c
  4115  0001A4  5001               	movf	(??_uart+0+0)&0ffh,c,w
  4116  0001A6  D08C               	goto	i2l208
  4117                           	line	71
  4118                           	
  4119  0001A8                     i2l2354:
  4120                           ;interruptes.c: 71: return;
  4121  0001A8  D08B               	goto	i2l208
  4122                           	line	72
  4123                           	
  4124  0001AA                     i2l219:
  4125  0001AA  D002               	goto	i2l206
  4126                           	line	73
  4127                           	
  4128  0001AC                     i2l218:
  4129  0001AC  D001               	goto	i2l206
  4130                           	
  4131  0001AE                     i2l216:
  4132  0001AE  D000               	goto	i2l206
  4133                           	line	74
  4134                           	
  4135  0001B0                     i2l215:
  4136                           	
  4137  0001B0                     i2l206:
  4138                           	line	76
  4139                           ;interruptes.c: 72: }
  4140                           ;interruptes.c: 73: }
  4141                           ;interruptes.c: 74: }
  4142                           ;interruptes.c: 76: if(TXIF){
  4143  0001B0  A89E               	btfss	c:(31988/8),(31988)&7	;volatile
  4144  0001B2  D001               	goto	i2u233_41
  4145  0001B4  D001               	goto	i2u233_40
  4146  0001B6                     i2u233_41:
  4147  0001B6  D084               	goto	i2l208
  4148  0001B8                     i2u233_40:
  4149  0001B8  D057               	goto	i2l2410
  4150                           	line	77
  4151                           	
  4152  0001BA                     i2l2356:
  4153                           ;interruptes.c: 77: switch(indexOutByte){
  4154  0001BA  D056               	goto	i2l2410
  4155                           	line	79
  4156                           ;interruptes.c: 79: case 1:
  4157                           	
  4158  0001BC                     i2l222:
  4159                           	line	80
  4160                           	
  4161  0001BC                     i2l2358:
  4162                           ;interruptes.c: 80: indexOutByte = 2;
  4163  0001BC  6E01               	movwf	(??_uart+0+0)&0ffh,c
  4164  0001BE  0E02               	movlw	low(02h)
  4165  0001C0  6E33               	movwf	((c:_indexOutByte)),c
  4166  0001C2  5001               	movf	(??_uart+0+0)&0ffh,c,w
  4167                           	line	81
  4168                           	
  4169  0001C4                     i2l2360:
  4170                           ;interruptes.c: 81: TXREG = state.stat0.as_byte;
  4171  0001C4  C023  FFAD         	movff	(c:_state),(c:4013)	;volatile
  4172                           	line	82
  4173                           ;interruptes.c: 82: break;
  4174  0001C8  D072               	goto	i2l2412
  4175                           	line	83
  4176                           ;interruptes.c: 83: case 2:
  4177                           	
  4178  0001CA                     i2l224:
  4179                           	line	84
  4180                           	
  4181  0001CA                     i2l2362:
  4182                           ;interruptes.c: 84: indexOutByte = 127;
  4183  0001CA  6E01               	movwf	(??_uart+0+0)&0ffh,c
  4184  0001CC  0E7F               	movlw	low(07Fh)
  4185  0001CE  6E33               	movwf	((c:_indexOutByte)),c
  4186  0001D0  5001               	movf	(??_uart+0+0)&0ffh,c,w
  4187                           	line	85
  4188                           	
  4189  0001D2                     i2l2364:
  4190                           ;interruptes.c: 85: TXREG = state.stat1.as_byte;
  4191  0001D2  C024  FFAD         	movff	0+((c:_state)+01h),(c:4013)	;volatile
  4192                           	line	86
  4193                           ;interruptes.c: 86: break;
  4194  0001D6  D06B               	goto	i2l2412
  4195                           	line	88
  4196                           ;interruptes.c: 88: case 13:
  4197                           	
  4198  0001D8                     i2l225:
  4199                           	line	89
  4200                           	
  4201  0001D8                     i2l2366:
  4202                           ;interruptes.c: 89: indexOutByte = 3;
  4203  0001D8  6E01               	movwf	(??_uart+0+0)&0ffh,c
  4204  0001DA  0E03               	movlw	low(03h)
  4205  0001DC  6E33               	movwf	((c:_indexOutByte)),c
  4206  0001DE  5001               	movf	(??_uart+0+0)&0ffh,c,w
  4207                           	line	90
  4208                           	
  4209  0001E0                     i2l2368:
  4210                           ;interruptes.c: 90: TXREG = tmValue.data[0];
  4211  0001E0  C02B  FFAD         	movff	(c:_tmValue),(c:4013)	;volatile
  4212                           	line	91
  4213                           ;interruptes.c: 91: break;
  4214  0001E4  D064               	goto	i2l2412
  4215                           	line	92
  4216                           ;interruptes.c: 92: case 3:
  4217                           	
  4218  0001E6                     i2l226:
  4219                           	line	93
  4220                           	
  4221  0001E6                     i2l2370:
  4222                           ;interruptes.c: 93: indexOutByte = 4;
  4223  0001E6  6E01               	movwf	(??_uart+0+0)&0ffh,c
  4224  0001E8  0E04               	movlw	low(04h)
  4225  0001EA  6E33               	movwf	((c:_indexOutByte)),c
  4226  0001EC  5001               	movf	(??_uart+0+0)&0ffh,c,w
  4227                           	line	94
  4228                           	
  4229  0001EE                     i2l2372:
  4230                           ;interruptes.c: 94: TXREG = tmValue.data[1];
  4231  0001EE  C02C  FFAD         	movff	0+((c:_tmValue)+01h),(c:4013)	;volatile
  4232                           	line	95
  4233                           ;interruptes.c: 95: break;
  4234  0001F2  D05D               	goto	i2l2412
  4235                           	line	96
  4236                           ;interruptes.c: 96: case 4:
  4237                           	
  4238  0001F4                     i2l227:
  4239                           	line	97
  4240                           	
  4241  0001F4                     i2l2374:
  4242                           ;interruptes.c: 97: indexOutByte = 5;
  4243  0001F4  6E01               	movwf	(??_uart+0+0)&0ffh,c
  4244  0001F6  0E05               	movlw	low(05h)
  4245  0001F8  6E33               	movwf	((c:_indexOutByte)),c
  4246  0001FA  5001               	movf	(??_uart+0+0)&0ffh,c,w
  4247                           	line	98
  4248                           	
  4249  0001FC                     i2l2376:
  4250                           ;interruptes.c: 98: TXREG = tmValue.data[2];
  4251  0001FC  C02D  FFAD         	movff	0+((c:_tmValue)+02h),(c:4013)	;volatile
  4252                           	line	99
  4253                           ;interruptes.c: 99: break;
  4254  000200  D056               	goto	i2l2412
  4255                           	line	100
  4256                           ;interruptes.c: 100: case 5:
  4257                           	
  4258  000202                     i2l228:
  4259                           	line	101
  4260                           	
  4261  000202                     i2l2378:
  4262                           ;interruptes.c: 101: indexOutByte = 6;
  4263  000202  6E01               	movwf	(??_uart+0+0)&0ffh,c
  4264  000204  0E06               	movlw	low(06h)
  4265  000206  6E33               	movwf	((c:_indexOutByte)),c
  4266  000208  5001               	movf	(??_uart+0+0)&0ffh,c,w
  4267                           	line	102
  4268                           	
  4269  00020A                     i2l2380:
  4270                           ;interruptes.c: 102: TXREG = tmValue.data[3];
  4271  00020A  C02E  FFAD         	movff	0+((c:_tmValue)+03h),(c:4013)	;volatile
  4272                           	line	103
  4273                           ;interruptes.c: 103: break;
  4274  00020E  D04F               	goto	i2l2412
  4275                           	line	104
  4276                           ;interruptes.c: 104: case 6:
  4277                           	
  4278  000210                     i2l229:
  4279                           	line	105
  4280                           	
  4281  000210                     i2l2382:
  4282                           ;interruptes.c: 105: indexOutByte = 7;
  4283  000210  6E01               	movwf	(??_uart+0+0)&0ffh,c
  4284  000212  0E07               	movlw	low(07h)
  4285  000214  6E33               	movwf	((c:_indexOutByte)),c
  4286  000216  5001               	movf	(??_uart+0+0)&0ffh,c,w
  4287                           	line	106
  4288                           	
  4289  000218                     i2l2384:
  4290                           ;interruptes.c: 106: TXREG = tmValue.data[4];
  4291  000218  C02F  FFAD         	movff	0+((c:_tmValue)+04h),(c:4013)	;volatile
  4292                           	line	107
  4293                           ;interruptes.c: 107: break;
  4294  00021C  D048               	goto	i2l2412
  4295                           	line	108
  4296                           ;interruptes.c: 108: case 7:
  4297                           	
  4298  00021E                     i2l230:
  4299                           	line	109
  4300                           	
  4301  00021E                     i2l2386:
  4302                           ;interruptes.c: 109: indexOutByte = 8;
  4303  00021E  6E01               	movwf	(??_uart+0+0)&0ffh,c
  4304  000220  0E08               	movlw	low(08h)
  4305  000222  6E33               	movwf	((c:_indexOutByte)),c
  4306  000224  5001               	movf	(??_uart+0+0)&0ffh,c,w
  4307                           	line	110
  4308                           	
  4309  000226                     i2l2388:
  4310                           ;interruptes.c: 110: TXREG = tmValue.data[5];
  4311  000226  C030  FFAD         	movff	0+((c:_tmValue)+05h),(c:4013)	;volatile
  4312                           	line	111
  4313                           ;interruptes.c: 111: break;
  4314  00022A  D041               	goto	i2l2412
  4315                           	line	112
  4316                           ;interruptes.c: 112: case 8:
  4317                           	
  4318  00022C                     i2l231:
  4319                           	line	113
  4320                           	
  4321  00022C                     i2l2390:
  4322                           ;interruptes.c: 113: indexOutByte = 9;
  4323  00022C  6E01               	movwf	(??_uart+0+0)&0ffh,c
  4324  00022E  0E09               	movlw	low(09h)
  4325  000230  6E33               	movwf	((c:_indexOutByte)),c
  4326  000232  5001               	movf	(??_uart+0+0)&0ffh,c,w
  4327                           	line	114
  4328                           	
  4329  000234                     i2l2392:
  4330                           ;interruptes.c: 114: TXREG = tmValue.data[6];
  4331  000234  C031  FFAD         	movff	0+((c:_tmValue)+06h),(c:4013)	;volatile
  4332                           	line	115
  4333                           ;interruptes.c: 115: break;
  4334  000238  D03A               	goto	i2l2412
  4335                           	line	116
  4336                           ;interruptes.c: 116: case 9:
  4337                           	
  4338  00023A                     i2l232:
  4339                           	line	117
  4340                           	
  4341  00023A                     i2l2394:
  4342                           ;interruptes.c: 117: indexOutByte = 127;
  4343  00023A  6E01               	movwf	(??_uart+0+0)&0ffh,c
  4344  00023C  0E7F               	movlw	low(07Fh)
  4345  00023E  6E33               	movwf	((c:_indexOutByte)),c
  4346  000240  5001               	movf	(??_uart+0+0)&0ffh,c,w
  4347                           	line	118
  4348                           	
  4349  000242                     i2l2396:
  4350                           ;interruptes.c: 118: TXREG = tmValue.data[7];
  4351  000242  C032  FFAD         	movff	0+((c:_tmValue)+07h),(c:4013)	;volatile
  4352                           	line	119
  4353                           	
  4354  000246                     i2l2398:
  4355                           ;interruptes.c: 119: state.stat1.tm = 0;
  4356  000246  9024               	bcf	(0+((c:_state)+01h)),c,0
  4357                           	line	120
  4358                           ;interruptes.c: 120: break;
  4359  000248  D032               	goto	i2l2412
  4360                           	line	121
  4361                           ;interruptes.c: 121: case 127:
  4362                           	
  4363  00024A                     i2l233:
  4364                           	line	122
  4365                           	
  4366  00024A                     i2l2400:
  4367                           ;interruptes.c: 122: indexOutByte = 1;
  4368  00024A  6E01               	movwf	(??_uart+0+0)&0ffh,c
  4369  00024C  0E01               	movlw	low(01h)
  4370  00024E  6E33               	movwf	((c:_indexOutByte)),c
  4371  000250  5001               	movf	(??_uart+0+0)&0ffh,c,w
  4372                           	line	123
  4373                           	
  4374  000252                     i2l2402:
  4375                           ;interruptes.c: 123: setRX();
  4376  000252  ECE1  F003         	call	i2_setRX	;wreg free
  4377                           	line	124
  4378                           ;interruptes.c: 124: break;
  4379  000256  D02B               	goto	i2l2412
  4380                           	line	125
  4381                           ;interruptes.c: 125: default:
  4382                           	
  4383  000258                     i2l234:
  4384                           	line	126
  4385                           	
  4386  000258                     i2l2404:
  4387                           ;interruptes.c: 126: indexOutByte = 1;
  4388  000258  6E01               	movwf	(??_uart+0+0)&0ffh,c
  4389  00025A  0E01               	movlw	low(01h)
  4390  00025C  6E33               	movwf	((c:_indexOutByte)),c
  4391  00025E  5001               	movf	(??_uart+0+0)&0ffh,c,w
  4392                           	line	127
  4393                           	
  4394  000260                     i2l2406:
  4395                           ;interruptes.c: 127: setRX();
  4396  000260  ECE1  F003         	call	i2_setRX	;wreg free
  4397                           	line	128
  4398                           ;interruptes.c: 128: break;
  4399  000264  D024               	goto	i2l2412
  4400                           	line	129
  4401                           	
  4402  000266                     i2l2408:
  4403                           ;interruptes.c: 129: }
  4404  000266  D023               	goto	i2l2412
  4405                           	line	77
  4406                           	
  4407  000268                     i2l221:
  4408                           	
  4409  000268                     i2l2410:
  4410  000268  5033               	movf	((c:_indexOutByte)),c,w
  4411                           	; Switch size 1, requested type "space"
  4412                           ; Number of cases is 11, Range of values is 1 to 127
  4413                           ; switch strategies available:
  4414                           ; Name         Instructions Cycles
  4415                           ; simple_byte           34    18 (average)
  4416                           ;	Chosen strategy is simple_byte
  4417                           
  4418  00026A  0A01               	xorlw	1^0	; case 1
  4419  00026C  B4D8               	skipnz
  4420  00026E  D7A6               	goto	i2l2358
  4421  000270  0A03               	xorlw	2^1	; case 2
  4422  000272  B4D8               	skipnz
  4423  000274  D7AA               	goto	i2l2362
  4424  000276  0A01               	xorlw	3^2	; case 3
  4425  000278  B4D8               	skipnz
  4426  00027A  D7B5               	goto	i2l2370
  4427  00027C  0A07               	xorlw	4^3	; case 4
  4428  00027E  B4D8               	skipnz
  4429  000280  D7B9               	goto	i2l2374
  4430  000282  0A01               	xorlw	5^4	; case 5
  4431  000284  B4D8               	skipnz
  4432  000286  D7BD               	goto	i2l2378
  4433  000288  0A03               	xorlw	6^5	; case 6
  4434  00028A  B4D8               	skipnz
  4435  00028C  D7C1               	goto	i2l2382
  4436  00028E  0A01               	xorlw	7^6	; case 7
  4437  000290  B4D8               	skipnz
  4438  000292  D7C5               	goto	i2l2386
  4439  000294  0A0F               	xorlw	8^7	; case 8
  4440  000296  B4D8               	skipnz
  4441  000298  D7C9               	goto	i2l2390
  4442  00029A  0A01               	xorlw	9^8	; case 9
  4443  00029C  B4D8               	skipnz
  4444  00029E  D7CD               	goto	i2l2394
  4445  0002A0  0A04               	xorlw	13^9	; case 13
  4446  0002A2  B4D8               	skipnz
  4447  0002A4  D799               	goto	i2l2366
  4448  0002A6  0A72               	xorlw	127^13	; case 127
  4449  0002A8  B4D8               	skipnz
  4450  0002AA  D7CF               	goto	i2l2400
  4451  0002AC  D7D5               	goto	i2l2404
  4452                           
  4453                           	line	129
  4454                           	
  4455  0002AE                     i2l223:
  4456                           	line	130
  4457                           	
  4458  0002AE                     i2l2412:
  4459                           ;interruptes.c: 130: _delay((unsigned long)((750)*(16000000/4000000.0)));
  4460  0002AE  0E04               	movlw	4
  4461  0002B0  6E01               movwf	(??_uart+0+0)&0ffh,c,f
  4462  0002B2  0EE4               	movlw	228
  4463  0002B4                     i2u242_47:
  4464  0002B4  2EE8               	decfsz	wreg,f
  4465  0002B6  D7FE               	goto	i2u242_47
  4466  0002B8  2E01               	decfsz	(??_uart+0+0)&0ffh,c,f
  4467  0002BA  D7FC               	goto	i2u242_47
  4468  0002BC  F000               	nop
  4469                           
  4470  0002BE  D000               	goto	i2l208
  4471                           	line	131
  4472                           	
  4473  0002C0                     i2l220:
  4474                           	line	132
  4475                           	
  4476  0002C0                     i2l208:
  4477  0002C0  C00F  FFF5         	movff	??_uart+14,tablat+0
  4478  0002C4  C00E  FFF8         	movff	??_uart+13,tblptru+0
  4479  0002C8  C00D  FFF7         	movff	??_uart+12,tblptrh+0
  4480  0002CC  C00C  FFF6         	movff	??_uart+11,tblptrl+0
  4481  0002D0  C00B  FFF4         	movff	??_uart+10,prodh+0
  4482  0002D4  C00A  FFF3         	movff	??_uart+9,prodl+0
  4483  0002D8  C009  FFDA         	movff	??_uart+8,fsr2h+0
  4484  0002DC  C008  FFD9         	movff	??_uart+7,fsr2l+0
  4485  0002E0  C007  FFE2         	movff	??_uart+6,fsr1h+0
  4486  0002E4  C006  FFE1         	movff	??_uart+5,fsr1l+0
  4487  0002E8  C005  FFEA         	movff	??_uart+4,fsr0h+0
  4488  0002EC  C004  FFE9         	movff	??_uart+3,fsr0l+0
  4489  0002F0  C003  FFFB         	movff	??_uart+2,pclat+1
  4490  0002F4  C002  FFFA         	movff	??_uart+1,pclat+0
  4491  0002F8  0011               	retfie f
  4492                           	opt stack 0
  4493                           GLOBAL	__end_of_uart
  4494  0002FA                     	__end_of_uart:
  4495                           	signat	_uart,88
  4496                           	global	_setTX
  4497                           
  4498 ;; *************** function _setTX *****************
  4499 ;; Defined at:
  4500 ;;		line 155 in file "mainApp.c"
  4501 ;; Parameters:    Size  Location     Type
  4502 ;;		None
  4503 ;; Auto vars:     Size  Location     Type
  4504 ;;		None
  4505 ;; Return value:  Size  Location     Type
  4506 ;;		None               void
  4507 ;; Registers used:
  4508 ;;		None
  4509 ;; Tracked objects:
  4510 ;;		On entry : 0/0
  4511 ;;		On exit  : 0/0
  4512 ;;		Unchanged: 0/0
  4513 ;; Data sizes:     COMRAM   BANK0   BANK1   BANK2   BANK3   BANK4   BANK5
  4514 ;;      Params:         0       0       0       0       0       0       0
  4515 ;;      Locals:         0       0       0       0       0       0       0
  4516 ;;      Temps:          0       0       0       0       0       0       0
  4517 ;;      Totals:         0       0       0       0       0       0       0
  4518 ;;Total ram usage:        0 bytes
  4519 ;; Hardware stack levels used:    1
  4520 ;; This function calls:
  4521 ;;		Nothing
  4522 ;; This function is called by:
  4523 ;;		_uart
  4524 ;; This function uses a non-reentrant model
  4525 ;;
  4526                           psect	text14,class=CODE,space=0,reloc=2
  4527                           global __ptext14
  4528  0007E2                     __ptext14:
  4529                           psect	text14
  4530                           	file	"mainApp.c"
  4531                           	line	155
  4532                           	global	__size_of_setTX
  4533  0000                     	__size_of_setTX	equ	__end_of_setTX-_setTX
  4534                           	
  4535  0007E2                     _setTX:
  4536                           	opt	stack 27
  4537                           	line	156
  4538                           	
  4539  0007E2                     i2l1040:
  4540                           ;mainApp.c: 156: PORTBbits.RB4 = 1;
  4541  0007E2  8881               	bsf	((c:3969)),c,4	;volatile
  4542                           	line	157
  4543                           ;mainApp.c: 157: PORTCbits.RC4 = 1;
  4544  0007E4  8882               	bsf	((c:3970)),c,4	;volatile
  4545                           	line	158
  4546                           ;mainApp.c: 158: TXSTAbits.TXEN = 1;
  4547  0007E6  8AAC               	bsf	((c:4012)),c,5	;volatile
  4548                           	line	159
  4549                           ;mainApp.c: 159: PIE1bits.TXIE = 1;
  4550  0007E8  889D               	bsf	((c:3997)),c,4	;volatile
  4551                           	line	160
  4552                           ;mainApp.c: 160: RCSTAbits.CREN = 0;
  4553  0007EA  98AB               	bcf	((c:4011)),c,4	;volatile
  4554                           	line	161
  4555                           ;mainApp.c: 161: PIE1bits.RCIE = 0;
  4556  0007EC  9A9D               	bcf	((c:3997)),c,5	;volatile
  4557                           	line	162
  4558                           	
  4559  0007EE                     i2l154:
  4560  0007EE  0012               	return
  4561                           	opt stack 0
  4562                           GLOBAL	__end_of_setTX
  4563  0007F0                     	__end_of_setTX:
  4564                           	signat	_setTX,88
  4565                           	global	i2_setRX
  4566                           
  4567 ;; *************** function i2_setRX *****************
  4568 ;; Defined at:
  4569 ;;		line 145 in file "mainApp.c"
  4570 ;; Parameters:    Size  Location     Type
  4571 ;;		None
  4572 ;; Auto vars:     Size  Location     Type
  4573 ;;		None
  4574 ;; Return value:  Size  Location     Type
  4575 ;;		None               void
  4576 ;; Registers used:
  4577 ;;		None
  4578 ;; Tracked objects:
  4579 ;;		On entry : 0/0
  4580 ;;		On exit  : 0/0
  4581 ;;		Unchanged: 0/0
  4582 ;; Data sizes:     COMRAM   BANK0   BANK1   BANK2   BANK3   BANK4   BANK5
  4583 ;;      Params:         0       0       0       0       0       0       0
  4584 ;;      Locals:         0       0       0       0       0       0       0
  4585 ;;      Temps:          0       0       0       0       0       0       0
  4586 ;;      Totals:         0       0       0       0       0       0       0
  4587 ;;Total ram usage:        0 bytes
  4588 ;; Hardware stack levels used:    1
  4589 ;; This function calls:
  4590 ;;		Nothing
  4591 ;; This function is called by:
  4592 ;;		_uart
  4593 ;; This function uses a non-reentrant model
  4594 ;;
  4595                           psect	text15,class=CODE,space=0,reloc=2
  4596                           global __ptext15
  4597  0007C2                     __ptext15:
  4598                           psect	text15
  4599                           	file	"mainApp.c"
  4600                           	line	145
  4601                           	global	__size_ofi2_setRX
  4602  0000                     	__size_ofi2_setRX	equ	__end_ofi2_setRX-i2_setRX
  4603                           	
  4604  0007C2                     i2_setRX:
  4605                           	opt	stack 27
  4606                           	line	146
  4607                           	
  4608  0007C2                     i2l2280:
  4609                           ;mainApp.c: 146: PORTBbits.RB4 = 0;
  4610  0007C2  9881               	bcf	((c:3969)),c,4	;volatile
  4611                           	line	147
  4612                           ;mainApp.c: 147: PORTCbits.RC4 = 0;
  4613  0007C4  9882               	bcf	((c:3970)),c,4	;volatile
  4614                           	line	148
  4615                           ;mainApp.c: 148: TXSTAbits.TXEN = 0;
  4616  0007C6  9AAC               	bcf	((c:4012)),c,5	;volatile
  4617                           	line	149
  4618                           ;mainApp.c: 149: PIE1bits.TXIE = 0;
  4619  0007C8  989D               	bcf	((c:3997)),c,4	;volatile
  4620                           	line	150
  4621                           ;mainApp.c: 150: RCSTA1bits.ADDEN = 0;
  4622  0007CA  96AB               	bcf	((c:4011)),c,3	;volatile
  4623                           	line	151
  4624                           ;mainApp.c: 151: RCSTA1bits.CREN = 1;
  4625  0007CC  88AB               	bsf	((c:4011)),c,4	;volatile
  4626                           	line	152
  4627                           ;mainApp.c: 152: PIE1bits.RCIE = 1;
  4628  0007CE  8A9D               	bsf	((c:3997)),c,5	;volatile
  4629                           	line	153
  4630                           	
  4631  0007D0                     i2l151:
  4632  0007D0  0012               	return
  4633                           	opt stack 0
  4634                           GLOBAL	__end_ofi2_setRX
  4635  0007D2                     	__end_ofi2_setRX:
  4636                           	signat	i2_setRX,88
  4637                           psect	mediumconst
  4638  007FFE  00                 	db 0	; dummy byte at the end
  4639                           	global	__mediumconst
  4640                           	GLOBAL	__activetblptr
  4641  0000                     __activetblptr	EQU	2
  4642                           	psect	intsave_regs,class=BIGRAM,space=1
  4643                           	PSECT	rparam,class=COMRAM,space=1
  4644                           	GLOBAL	__Lrparam
  4645                           	FNCONF	rparam,??,?
  4646                           GLOBAL	__Lparam, __Hparam
  4647                           GLOBAL	__Lrparam, __Hrparam
  4648  0000                     __Lparam	EQU	__Lrparam
  4649  0000                     __Hparam	EQU	__Hrparam


Data Sizes:
    Strings     0
    Constant    256
    Data        0
    BSS         16
    Persistent  1
    Stack       0

Auto Spaces:
    Space          Size  Autos    Used
    COMRAM          127     34      51
    BANK0           128      0       0
    BANK1           256      0       0
    BANK2           256      0       0
    BANK3           256      0       0
    BANK4           256      0       0
    BANK5           256      0       0

Pointer List with Targets:

    ?_adc	unsigned short  size(2) Largest target is 0

    getCRC8@data	PTR unsigned char  size(2) Largest target is 8
		 -> tmValue(COMRAM[8]), 


Critical Paths under _main in COMRAM

    _main->_getPowerLine
    _getPowerLine->_adc
    _getBat->_adc
    _getDc->_adc
    _writeReadDs1990->_getCRC8
    _isPressedDs1990->_resetWire

Critical Paths under _uart in COMRAM

    None.

Critical Paths under _main in BANK0

    None.

Critical Paths under _uart in BANK0

    None.

Critical Paths under _main in BANK1

    None.

Critical Paths under _uart in BANK1

    None.

Critical Paths under _main in BANK2

    None.

Critical Paths under _uart in BANK2

    None.

Critical Paths under _main in BANK3

    None.

Critical Paths under _uart in BANK3

    None.

Critical Paths under _main in BANK4

    None.

Critical Paths under _uart in BANK4

    None.

Critical Paths under _main in BANK5

    None.

Critical Paths under _uart in BANK5

    None.

Call Graph Tables:

 ---------------------------------------------------------------------------------
 (Depth) Function   	        Calls       Base Space   Used Autos Params    Refs
 ---------------------------------------------------------------------------------
 (0) _main                                                 6     1      5     390
                                             28 COMRAM     6     1      5
                               _init
                       _getPowerLine
                              _getDc
                             _getBat
                    _isPressedDs1990
                    _writeReadDs1990
 ---------------------------------------------------------------------------------
 (1) _getPowerLine                                         7     7      0     120
                                             21 COMRAM     7     7      0
                                _adc
 ---------------------------------------------------------------------------------
 (1) _init                                                 1     1      0       0
                                             17 COMRAM     1     1      0
                              _setRX
 ---------------------------------------------------------------------------------
 (2) _setRX                                                0     0      0       0
 ---------------------------------------------------------------------------------
 (1) _getBat                                               1     1      0      15
                                             21 COMRAM     1     1      0
                                _adc
 ---------------------------------------------------------------------------------
 (1) _getDc                                                1     1      0      15
                                             21 COMRAM     1     1      0
                                _adc
 ---------------------------------------------------------------------------------
 (1) _writeReadDs1990                                      3     3      0     240
                                             22 COMRAM     3     3      0
                        _outByteWire
                       _readByteWire
                            _getCRC8
 ---------------------------------------------------------------------------------
 (1) _isPressedDs1990                                      0     0      0       0
                          _resetWire
 ---------------------------------------------------------------------------------
 (2) _adc                                                  4     2      2      15
                                             17 COMRAM     4     2      2
 ---------------------------------------------------------------------------------
 (2) _resetWire                                            1     1      0       0
                                             17 COMRAM     1     1      0
 ---------------------------------------------------------------------------------
 (2) _getCRC8                                              5     3      2     105
                                             17 COMRAM     5     3      2
 ---------------------------------------------------------------------------------
 (2) _outByteWire                                          3     2      1      45
                                             17 COMRAM     3     2      1
 ---------------------------------------------------------------------------------
 (2) _readByteWire                                         4     4      0      45
                                             17 COMRAM     4     4      0
 ---------------------------------------------------------------------------------
 Estimated maximum stack depth 2
 ---------------------------------------------------------------------------------
 (Depth) Function   	        Calls       Base Space   Used Autos Params    Refs
 ---------------------------------------------------------------------------------
 (3) _uart                                                17    17      0     105
                                              0 COMRAM    17    17      0
                              _setTX
                            i2_setRX
 ---------------------------------------------------------------------------------
 (4) _setTX                                                0     0      0       0
 ---------------------------------------------------------------------------------
 (4) i2_setRX                                              0     0      0       0
 ---------------------------------------------------------------------------------
 Estimated maximum stack depth 4
 ---------------------------------------------------------------------------------

 Call Graph Graphs:

 _main (ROOT)
   _init
     _setRX
   _getPowerLine
     _adc
   _getDc
     _adc
   _getBat
     _adc
   _isPressedDs1990
     _resetWire
   _writeReadDs1990
     _outByteWire
     _readByteWire
     _getCRC8

 _uart (ROOT)
   _setTX
   i2_setRX

 Address spaces:
Name               Size   Autos  Total    Cost      Usage
BIGRAM             5FF      0       0      17        0.0%
EEDATA             100      0       0       0        0.0%
BITBANK5           100      0       0      16        0.0%
BANK5              100      0       0      14        0.0%
BITBANK4           100      0       0      12        0.0%
BANK4              100      0       0      13        0.0%
BITBANK3           100      0       0      10        0.0%
BANK3              100      0       0      11        0.0%
BITBANK2           100      0       0       8        0.0%
BANK2              100      0       0       9        0.0%
BITBANK1           100      0       0       6        0.0%
BANK1              100      0       0       7        0.0%
BITBANK0            80      0       0       4        0.0%
BANK0               80      0       0       5        0.0%
BITCOMRAM           7F      0       0       0        0.0%
COMRAM              7F     22      33       1       40.2%
BITSFR               0      0       0      40        0.0%
SFR                  0      0       0      40        0.0%
STACK                0      0       6       2        0.0%
NULL                 0      0       0       0        0.0%
ABS                  0      0      33      15        0.0%
DATA                 0      0      39       3        0.0%
CODE                 0      0       0       0        0.0%


HI-TECH Software PICC-18 Macro Assembler V9.80 build 11162 
Symbol Table                                                                                   Tue Apr 10 16:08:41 2018

                      _GO 007E11                        u10 0430                        u11 042E  
                      u40 0484                        u41 0482                        u25 0470  
                      u50 0492                        u51 0490                        u35 047A  
                      u27 0472                        u60 031E                        u61 031C  
                      u37 047C                        u70 0330                        u71 032E  
                      u80 035C                        u81 035A                        u94 036C  
                      u95 0368            ??_getPowerLine 0016               __CFG_BORV$3 000000  
            __CFG_CP0$OFF 000000              __CFG_CP1$OFF 000000              __CFG_CP2$OFF 000000  
            __CFG_CP3$OFF 000000               __CFG_OSC$HS 000000                       l120 04A0  
                     l113 05AA                       l121 04A2                       l122 04A2  
                     l131 0344                       l300 05CA                       l140 04DA  
                     l132 0394                       l116 0428                       l301 0600  
                     l141 0528                       l125 0322                       l117 049E  
                     l302 061C                       l142 0518                       l126 0390  
                     l118 049A                       l303 0620                       l135 0784  
                     l151 07E0                       l127 0376                       l119 0498  
                     l136 0788                       l145 073E                       l129 033A  
                     l146 073E                       l147 0748                       l139 0528  
                     l148 0760                       l271 072E                       l272 072C  
                     l280 0406                       l273 072A                       l281 0420  
                     l290 06CE                       l274 072E                       l291 06F6  
                     l284 07AA                       l277 03B6                       l294 0642  
                     l278 0420                       l295 0692                       l287 06B8  
                     l279 03D6                       l296 0670                       l288 06F6  
                     l297 0696                       l289 06C8                       l900 0556  
                     l910 07D2                       l902 0594                       l904 059C  
                     l920 0468                       l912 0422                       l906 05A4  
                     l930 049A                       l922 0472                       l914 0428  
                     l908 05A6                       l940 0322                       l932 02FA  
                     l924 047C                       l916 0430                       l950 0376  
                     l942 0330                       l934 0302                       l926 0484  
                     l918 0432                       l960 077E                       l952 037A  
                     l944 033A                       l936 030A                       l928 0492  
                     l962 0782                       l970 04B0                       l946 0344  
                     l938 0320                       l954 0390                       l964 0784  
                     l980 04EC                       l972 04B8                       l956 0394  
                     l948 035C                       l966 0788                       l958 0762  
                     l990 051A                       l982 0508                       l974 04D4  
                     l992 0522                       l984 050A                       l976 04D8  
                     l968 04A6                       l994 0526                       l986 0512  
                     l978 04DC                       l898 052A                       _GIE 007F97  
                     l996 06F8                       l988 0516                       l998 06FC  
            __CFG_CPB$OFF 000000                       u100 038E                       u101 038C  
                     u110 077E                       u111 077C                       u200 03D2  
                     u120 04B0                       u201 03D0                       u121 04AE  
                     u210 0404                       u130 04B8                       u211 0402  
                     u131 04B6                       u300 0690                       u220 041C  
                     u140 04D4                       u301 068E                       u221 041A  
                     u141 04D2                       u310 05C6                       u230 0746  
                     u150 0508                       u311 05C4                       u231 0744  
                     u151 0506                       u240 06B4                       u320 05FE  
                     u160 0704                       u241 06B2                       u321 05FC  
                     u161 0702                       u250 06C4                       u330 0616  
                     u170 0714                       u251 06C2                       u331 0614  
                     u171 0712                       u260 06F4                       u180 0724  
                     u261 06F2                       u181 0722                       u270 063E  
                     u190 03B2                       u271 063C                       u191 03B0  
                     u290 066C              __CFG_CPD$OFF 000000                       u291 066A  
                     u285 0664                       _adc 0730                       _akb 0025  
                     _sec 0029                       wreg 000FE8              __CFG_LVP$OFF 000000  
            __CFG_WDT$OFF 000000                      ?_adc 0012                      l1000 0704  
                    l1010 0728                      l1002 070C                      l1100 05F2  
                    l1004 0714                      l1020 03D4                      l1012 0396  
                    l1110 061C                      l1102 05F4                      l1006 071C  
                    l1030 041C                      l1022 03D6                      l1014 03B4  
                    l1112 0620                      l1104 0600                      l1032 0730  
                    l1008 0724                      l1024 03EC                      l1016 03B6  
                    l1050 06A0                      l1106 0616                      l1042 078A  
                    l1034 073A                      l1026 03F0                      l1018 03BE  
                    l1060 06DA                      l1052 06B6                      l1108 061A  
                    l1044 0790                      l1036 0748                      l1028 0406  
                    l1070 064A                      l1062 06E0                      l1054 06C4  
                    l1046 07A0                      l1038 0760                      l1080 066C  
                    l1072 064E                      l1064 0622                      l1056 06CE  
                    l1048 0698                      l1090 0696                      l1082 0670  
                    l1074 0650                      l1066 062A                      l1058 06D6  
                    l1084 0678                      l1076 0658                      l1068 0640  
                    l1092 05AC                      l1086 067C                      l1078 0664  
                    l1094 05BC                      l1088 0692                      l1096 05C8  
                    l1098 05CA                      _LATA 000F89                      _LATB 000F8A  
                    _LATC 000F8B                      u2407 0652                      u2417 0672  
                    u2347 04E2                      u2357 0706                      u2367 0716  
                    _PIE1 000F9D                      u2377 0796                      u2387 07A4  
                    u2397 06D0                      _RCIF 007CF5                      _TMR0 000FD6  
                    _WREG 000FE8                      _TXIF 007CF4                      _mSec 0027  
                    _main 0422                      _init 052A                      _uart 0008  
                    fsr0h 000FEA                      fsr1h 000FE2                      fsr0l 000FE9  
                    fsr2h 000FDA                      fsr1l 000FE1                      indf2 000FDF  
                    fsr2l 000FD9                      pclat 000FFA                      prodh 000FF4  
                    prodl 000FF3                      start 0018             __CFG_IESO$OFF 000000  
         __end_ofi2_setRX 07D2             __CFG_MCLRE$ON 000000         ??_isPressedDs1990 0013  
                   ??_adc 0014                     ?_main 001D                     ?_init 0001  
                   ?_uart 0001                     _CMCON 000FB4                     _T0CON 000FD5  
                   _T1CON 000FCD                     _T2CON 000FCA                     _FSR1H 000FE2  
                   _FSR2H 000FDA                     i2l210 00FE                     i2l211 00FE  
                   i2l203 0094                     i2l220 02C0                     i2l212 0168  
                   i2l204 0092                     i2l221 0268                     i2l213 014C  
                   i2l205 0088                     i2l230 021E                     i2l222 01BC  
                   i2l214 0162                     i2l206 01B0                     i2l151 07D0  
                   i2l223 02AE                     i2l231 022C                     i2l215 01B0  
                   i2l207 00C0                     i2l232 023A                     i2l224 01CA  
                   i2l216 01AE                     i2l208 02C0                     i2l233 024A  
                   i2l225 01D8                     i2l217 018E                     i2l209 00E6  
                   i2l154 07EE                     i2l234 0258                     i2l226 01E6  
                   i2l218 01AC                     i2l227 01F4                     i2l219 01AA  
                   i2l228 0202                     i2l229 0210                     _RCREG 000FAE  
                   _RCSTA 000FAB                     _SPBRG 000FAF                     _PORTA 000F80  
                   _PORTB 000F81                     _PORTC 000F82           __end_of_getCRC8 0622  
                   _TRISA 000F92                     _TRISB 000F93                     _TRISC 000F94  
                   _TXREG 000FAD                     _TXSTA 000FAC             __CFG_PWRT$OFF 000000  
           __CFG_WRT0$OFF 000000             __CFG_WRT1$OFF 000000             __CFG_WRT2$OFF 000000  
           __CFG_WRT3$OFF 000000            __CFG_EBTR0$OFF 000000            __CFG_FCMEN$OFF 000000  
          __CFG_EBTR1$OFF 000000            __CFG_EBTR2$OFF 000000            __CFG_EBTR3$OFF 000000  
           __CFG_WRTB$OFF 000000             __CFG_WRTC$OFF 000000                     adc@an 0012  
           __CFG_WRTD$OFF 000000            __CFG_EBTRB$OFF 000000                     _getDc 0762  
      getPowerLine@result 001A                     _setRX 07D2                     _setTX 07E2  
                   _relay 0028                     _shunt 002A                     _state 0023  
                   tablat 000FF5                     status 000FD8            __CFG_PBADEN$ON 000000  
            __end_of_main 04A6              __end_of_init 05AC              __end_of_uart 02FA  
       ??_writeReadDs1990 0017                    ??_main 0022                    ??_init 0012  
                  ??_uart 0001             __activetblptr 000002             ?_readByteWire 0001  
                  ?_getDc 0001                    _ADCON0 000FC2                    _ADCON1 000FC1  
                  _ADCON2 000FC0                    _ADRESH 000FC4                    _ADRESL 000FC3  
                  ?_setRX 0001                    ?_setTX 0001                    _CRCTAB 7EFE  
                  i2l1040 07E2                    i2l2300 009C                    i2l2310 00C4  
                  i2l2302 00B4                    i2l2400 024A                    i2l2320 00F2  
                  i2l2312 00D0                    i2l2304 00B6                    i2l2402 0252  
                  i2l2410 0268                    i2l2330 0158                    i2l2322 00FC  
                  i2l2314 00E2                    i2l2306 00BA                    i2l2404 0258  
                  i2l2412 02AE                    i2l2340 017C                    i2l2332 0164  
                  i2l2324 0106                    i2l2316 00E4                    i2l2308 00BE  
                  i2l2406 0260                    i2l2350 019A                    i2l2342 0180  
                  i2l2334 0166                    i2l2326 0114                    i2l2318 00E6  
                  i2l2280 07C2                    i2l2408 0266                    i2l2360 01C4  
                  i2l2352 019E                    i2l2344 018A                    i2l2328 014C  
                  i2l2336 0168                    i2l2370 01E6                    i2l2362 01CA  
                  i2l2354 01A8                    i2l2346 018C                    i2l2338 0172  
                  i2l2290 005E                    i2l2282 004A                    i2l2380 020A  
                  i2l2372 01EE                    i2l2364 01D2                    i2l2356 01BA  
                  i2l2348 018E                    i2l2292 006A                    i2l2284 0052  
                  i2l2390 022C                    i2l2382 0210                    i2l2374 01F4  
                  i2l2366 01D8                    i2l2358 01BC                    i2l2294 006C  
                  i2l2286 0054                    i2l2392 0234                    i2l2384 0218  
                  i2l2376 01FC                    i2l2368 01E0                    i2l2296 0078  
                  i2l2288 005C                    i2l2394 023A                    i2l2386 021E  
                  i2l2378 0202                    i2l2298 0094                    i2l2396 0242  
                  i2l2388 0226                    i2l2398 0246                    _INTCON 000FF2  
               ??i2_setRX 0001      __end_of_getPowerLine 0396                    _TMR0IE 007F95  
                  _TMR0IF 007F92            __CFG_WDTPS$128 000000            __CFG_XINST$OFF 000000  
          __CFG_STVREN$ON 000000                    _getBat 04A6                 ??_getCRC8 0014  
                  clear_0 07B2            ??_readByteWire 0012              ?_outByteWire 0012  
            __mediumconst 7EFE                    tblptrh 000FF7                    tblptrl 000FF6  
                  tblptru 000FF8                __accesstop 0080            __pcstackCOMRAM 0001  
           __end_of_getDc 078A             __end_of_setRX 07E2             __end_of_setTX 07F0  
                 ??_getDc 0016                   ??_setRX 0012                   ??_setTX 0001  
         _isPressedDs1990 06F8                __pnvCOMRAM 0033                   ?_getBat 0001  
      __size_of_resetWire 0022                   _INTCON2 000FF1                   _INTCON3 000FF0  
   __size_of_getPowerLine 009C                   i2_setRX 07C2                getCRC8@CRC 0015  
         _writeReadDs1990 0396      __end_of_readByteWire 0698                   __Hparam 0000  
                 __Lparam 0000           __size_of_getBat 0084                   _getCRC8 05AC  
      uart@indexInputData 0010                   __pcinit 07AC                   __ramtop 0600  
            _getPowerLine 02FA                   _dmcuWoR 0026                   __ptext0 0422  
                 __ptext1 02FA                   __ptext2 052A                   __ptext3 07D2  
                 __ptext4 04A6                   __ptext5 0762                   __ptext6 0396  
                 __ptext7 06F8                   __ptext8 0730                   __ptext9 078A  
            __size_of_adc 0032                   _tmValue 002B      __size_of_outByteWire 0060  
 __end_of_isPressedDs1990 0730            __pintcode_body 001C      end_of_initialization 07B8  
       __end_of_resetWire 07AC             __Lmediumconst 7EFE                   int_func 001C  
               _RCSTAbits 000FAB                   postinc0 000FEE                 _PORTAbits 000F80  
               _PORTBbits 000F81                 _PORTCbits 000F82                 _TRISBbits 000F93  
 __end_of_writeReadDs1990 0422                 _TXSTAbits 000FAC            __end_of_getBat 052A  
     start_initialization 07AC               __end_of_adc 0762          ?_isPressedDs1990 0001  
            _indexOutByte 0033     __size_of_readByteWire 0076                  ??_getBat 0016  
        __CFG_LPT1OSC$OFF 000000              _readByteWire 0622               __pbssCOMRAM 0023  
        ?_writeReadDs1990 0001                  ?i2_setRX 0001         __CFG_CCP2MX$PORTC 000000  
               __pintcode 0008             __pmediumconst 7EFE          _getPowerLine$632 0018  
                ?_getCRC8 0012            __size_of_getDc 0028            __size_of_setRX 0010  
          __size_of_setTX 000E          writeReadDs1990@i 0018           outByteWire@data 0012  
                _PIE1bits 000F9D                  i2u220_40 00D0                  i2u220_41 00CE  
                i2u221_40 00F2                  i2u221_41 00F0                  i2u230_40 0172  
                i2u222_40 0106                  i2u230_41 0170                  i2u222_41 0104  
                i2u231_40 017C                  i2u223_40 0114                  i2u215_40 0052  
                i2u231_41 017A                  i2u223_41 0112                  i2u215_41 0050  
                i2u232_40 019A                  i2u216_40 006A                  i2u232_41 0198  
                i2u216_41 0068                  i2u224_45 0120                  i2u224_47 0122  
                i2u233_40 01B8                  i2u217_40 0078                  i2u233_41 01B6  
                i2u217_41 0076                  i2u225_45 012A                  i2u225_47 012C  
                i2u218_40 009C                  i2u218_41 009A                  i2u226_45 0134  
                i2u242_47 02B4                  i2u226_47 0136                  i2u219_40 00B4  
                i2u219_41 00B2                  i2u227_45 013E                  i2u227_47 0140  
               _resetWire 078A                  i2u228_45 0148                  i2u228_47 014A  
                i2u229_40 0158                  i2u229_41 0156             ??_outByteWire 0013  
           readByteWire@i 0014             readByteWire@t 0013               getCRC8@data 0012  
        __size_ofi2_setRX 0010                  __Hrparam 0000                ?_resetWire 0001  
                __Lrparam 0000        __CFG_BOREN$SBORDIS 000000          __size_of_getCRC8 0076  
                __ptext10 05AC                  __ptext11 0698                  __ptext12 0622  
                __ptext14 07E2                  __ptext15 07C2       __end_of_outByteWire 06F8  
                getCRC8@i 0016                 uart@nData 0011             __size_of_main 0084  
           __size_of_init 0082             __size_of_uart 02F2                  main@argc 001D  
                main@argv 001F                  intlevel2 0000  __size_of_isPressedDs1990 0038  
              _RCSTA1bits 000FAB               ??_resetWire 0012             getPowerLine@i 001B  
           ?_getPowerLine 0001               _outByteWire 0698              outByteWire@i 0013  
__size_of_writeReadDs1990 008C  
